
GccApplication10.elf:     file format elf32-avr

Sections:
Idx Name          Size      VMA       LMA       File off  Algn
  0 .data         00000026  00800100  00001d62  00001dd6  2**0
                  CONTENTS, ALLOC, LOAD, DATA
  1 .text         00001d62  00000000  00000000  00000074  2**1
                  CONTENTS, ALLOC, LOAD, READONLY, CODE
  2 .comment      00000030  00000000  00000000  00001dfc  2**0
                  CONTENTS, READONLY
  3 .note.gnu.avr.deviceinfo 00000040  00000000  00000000  00001e2c  2**2
                  CONTENTS, READONLY
  4 .debug_aranges 00000108  00000000  00000000  00001e6c  2**0
                  CONTENTS, READONLY, DEBUGGING
  5 .debug_info   00002c1f  00000000  00000000  00001f74  2**0
                  CONTENTS, READONLY, DEBUGGING
  6 .debug_abbrev 00000c8e  00000000  00000000  00004b93  2**0
                  CONTENTS, READONLY, DEBUGGING
  7 .debug_line   00000d59  00000000  00000000  00005821  2**0
                  CONTENTS, READONLY, DEBUGGING
  8 .debug_frame  0000050c  00000000  00000000  0000657c  2**2
                  CONTENTS, READONLY, DEBUGGING
  9 .debug_str    000007a1  00000000  00000000  00006a88  2**0
                  CONTENTS, READONLY, DEBUGGING
 10 .debug_loc    00002392  00000000  00000000  00007229  2**0
                  CONTENTS, READONLY, DEBUGGING
 11 .debug_ranges 00000100  00000000  00000000  000095bb  2**0
                  CONTENTS, READONLY, DEBUGGING

Disassembly of section .text:

00000000 <__vectors>:
       0:	0c 94 12 0a 	jmp	0x1424	; 0x1424 <__ctors_end>
       4:	0c 94 2f 0a 	jmp	0x145e	; 0x145e <__bad_interrupt>
       8:	0c 94 2f 0a 	jmp	0x145e	; 0x145e <__bad_interrupt>
       c:	0c 94 2f 0a 	jmp	0x145e	; 0x145e <__bad_interrupt>
      10:	0c 94 2f 0a 	jmp	0x145e	; 0x145e <__bad_interrupt>
      14:	0c 94 2f 0a 	jmp	0x145e	; 0x145e <__bad_interrupt>
      18:	0c 94 2f 0a 	jmp	0x145e	; 0x145e <__bad_interrupt>
      1c:	0c 94 2f 0a 	jmp	0x145e	; 0x145e <__bad_interrupt>
      20:	0c 94 2f 0a 	jmp	0x145e	; 0x145e <__bad_interrupt>
      24:	0c 94 2f 0a 	jmp	0x145e	; 0x145e <__bad_interrupt>
      28:	0c 94 2f 0a 	jmp	0x145e	; 0x145e <__bad_interrupt>
      2c:	0c 94 2f 0a 	jmp	0x145e	; 0x145e <__bad_interrupt>
      30:	0c 94 2f 0a 	jmp	0x145e	; 0x145e <__bad_interrupt>
      34:	0c 94 2f 0a 	jmp	0x145e	; 0x145e <__bad_interrupt>
      38:	0c 94 2f 0a 	jmp	0x145e	; 0x145e <__bad_interrupt>
      3c:	0c 94 2f 0a 	jmp	0x145e	; 0x145e <__bad_interrupt>
      40:	0c 94 2f 0a 	jmp	0x145e	; 0x145e <__bad_interrupt>
      44:	0c 94 2f 0a 	jmp	0x145e	; 0x145e <__bad_interrupt>
      48:	0c 94 2f 0a 	jmp	0x145e	; 0x145e <__bad_interrupt>
      4c:	0c 94 2f 0a 	jmp	0x145e	; 0x145e <__bad_interrupt>
      50:	0c 94 2f 0a 	jmp	0x145e	; 0x145e <__bad_interrupt>
      54:	0c 94 2f 0a 	jmp	0x145e	; 0x145e <__bad_interrupt>
      58:	0c 94 2f 0a 	jmp	0x145e	; 0x145e <__bad_interrupt>
      5c:	0c 94 2f 0a 	jmp	0x145e	; 0x145e <__bad_interrupt>
      60:	0c 94 2f 0a 	jmp	0x145e	; 0x145e <__bad_interrupt>
      64:	0c 94 2f 0a 	jmp	0x145e	; 0x145e <__bad_interrupt>
      68:	0c 94 2f 0a 	jmp	0x145e	; 0x145e <__bad_interrupt>
      6c:	0c 94 2f 0a 	jmp	0x145e	; 0x145e <__bad_interrupt>
      70:	0c 94 2f 0a 	jmp	0x145e	; 0x145e <__bad_interrupt>
      74:	0c 94 2f 0a 	jmp	0x145e	; 0x145e <__bad_interrupt>
      78:	0c 94 2f 0a 	jmp	0x145e	; 0x145e <__bad_interrupt>
      7c:	0c 94 2f 0a 	jmp	0x145e	; 0x145e <__bad_interrupt>
      80:	0c 94 2f 0a 	jmp	0x145e	; 0x145e <__bad_interrupt>
      84:	0c 94 2f 0a 	jmp	0x145e	; 0x145e <__bad_interrupt>
      88:	0c 94 2f 0a 	jmp	0x145e	; 0x145e <__bad_interrupt>

0000008c <__trampolines_end>:
      8c:	1e 11       	cpse	r17, r14
      8e:	98 0c       	add	r9, r8
      90:	92 00       	.word	0x0092	; ????

00000092 <Terminal8x12>:
      92:	08 00 0c 00 20 00 00 00 00 00 00 00 00 00 00 00     .... ...........
	...
      ba:	00 00 1c 00 00 00 7e 00 03 00 7e 00 03 00 1c 00     ......~...~.....
	...
      da:	00 00 0e 00 00 00 1e 00 00 00 00 00 00 00 00 00     ................
      ea:	00 00 1e 00 00 00 0e 00 00 00 00 00 00 00 88 00     ................
      fa:	00 00 fe 00 03 00 fe 00 03 00 88 00 00 00 fe 00     ................
     10a:	03 00 fe 00 03 00 88 00 00 00 00 00 00 00 18 00     ................
     11a:	01 00 3c 00 01 00 27 00 07 00 27 00 07 00 e4 00     ..<...'...'.....
     12a:	01 00 c4 00 00 00 00 00 00 00 00 00 00 00 18 00     ................
     13a:	03 00 98 00 01 00 c0 00 00 00 60 00 00 00 30 00     ..........`...0.
     14a:	03 00 18 00 03 00 00 00 00 00 00 00 00 00 ec 00     ................
     15a:	01 00 fe 00 03 00 32 00 02 00 7e 00 03 00 ec 00     ......2...~.....
     16a:	01 00 c0 00 03 00 60 00 02 00 00 00 00 00 00 00     ......`.........
     17a:	00 00 10 00 00 00 1e 00 00 00 0e 00 00 00 00 00     ................
	...
     19a:	00 00 70 00 00 00 f8 00 00 00 8c 00 01 00 06 00     ..p.............
     1aa:	03 00 02 00 02 00 00 00 00 00 00 00 00 00 00 00     ................
     1ba:	00 00 02 00 02 00 06 00 03 00 8c 00 01 00 f8 00     ................
     1ca:	00 00 70 00 00 00 00 00 00 00 00 00 00 00 20 00     ..p........... .
     1da:	00 00 a8 00 00 00 f8 00 00 00 70 00 00 00 70 00     ..........p...p.
     1ea:	00 00 f8 00 00 00 a8 00 00 00 20 00 00 00 00 00     .......... .....
     1fa:	00 00 20 00 00 00 20 00 00 00 f8 00 00 00 f8 00     .. ... .........
     20a:	00 00 20 00 00 00 20 00 00 00 00 00 00 00 00 00     .. ... .........
     21a:	00 00 00 00 04 00 00 00 07 00 00 00 03 00 00 00     ................
     22a:	03 00 00 00 00 00 00 00 00 00 00 00 00 00 20 00     .............. .
     23a:	00 00 20 00 00 00 20 00 00 00 20 00 00 00 20 00     .. ... ... ... .
     24a:	00 00 20 00 00 00 20 00 00 00 00 00 00 00 00 00     .. ... .........
	...
     262:	03 00 00 00 03 00 00 00 03 00 00 00 00 00 00 00     ................
	...
     27a:	03 00 80 00 01 00 c0 00 00 00 60 00 00 00 30 00     ..........`...0.
     28a:	00 00 18 00 00 00 0c 00 00 00 00 00 00 00 fc 00     ................
     29a:	01 00 fe 00 03 00 c2 00 02 00 72 00 02 00 1a 00     ..........r.....
     2aa:	02 00 fe 00 03 00 fc 00 01 00 00 00 00 00 08 00     ................
     2ba:	02 00 08 00 02 00 fc 00 03 00 fe 00 03 00 00 00     ................
     2ca:	02 00 00 00 02 00 00 00 00 00 00 00 00 00 0c 00     ................
     2da:	03 00 8e 00 03 00 c2 00 02 00 62 00 02 00 3e 00     ..........b...>.
     2ea:	03 00 1c 00 03 00 00 00 00 00 00 00 00 00 04 00     ................
     2fa:	01 00 06 00 03 00 22 00 02 00 22 00 02 00 fe 00     ......"...".....
     30a:	03 00 dc 00 01 00 00 00 00 00 00 00 00 00 60 00     ..............`.
     31a:	00 00 70 00 00 00 58 00 00 00 4c 00 02 00 fe 00     ..p...X...L.....
     32a:	03 00 fe 00 03 00 40 00 02 00 00 00 00 00 3e 00     ......@.......>.
     33a:	01 00 3e 00 03 00 22 00 02 00 22 00 02 00 e2 00     ..>..."...".....
     34a:	03 00 c2 00 01 00 00 00 00 00 00 00 00 00 f8 00     ................
     35a:	01 00 fc 00 03 00 26 00 02 00 22 00 02 00 e2 00     ......&...".....
     36a:	03 00 c0 00 01 00 00 00 00 00 00 00 00 00 0e 00     ................
     37a:	00 00 0e 00 00 00 82 00 03 00 c2 00 03 00 62 00     ..............b.
     38a:	00 00 3e 00 00 00 1e 00 00 00 00 00 00 00 dc 00     ..>.............
     39a:	01 00 fe 00 03 00 32 00 02 00 62 00 02 00 fe 00     ......2...b.....
     3aa:	03 00 dc 00 01 00 00 00 00 00 00 00 00 00 1c 00     ................
     3ba:	00 00 3e 00 02 00 22 00 03 00 e2 00 03 00 fe 00     ..>...".........
     3ca:	00 00 3c 00 00 00 00 00 00 00 00 00 00 00 00 00     ..<.............
     3da:	00 00 00 00 00 00 98 00 01 00 98 00 01 00 98 00     ................
     3ea:	01 00 00 00 00 00 00 00 00 00 00 00 00 00 00 00     ................
     3fa:	00 00 00 00 00 00 98 00 05 00 98 00 07 00 98 00     ................
     40a:	03 00 00 00 00 00 00 00 00 00 00 00 00 00 20 00     .............. .
     41a:	00 00 70 00 00 00 d8 00 00 00 8c 00 01 00 06 00     ..p.............
     42a:	03 00 02 00 02 00 00 00 00 00 00 00 00 00 00 00     ................
     43a:	00 00 50 00 00 00 50 00 00 00 50 00 00 00 50 00     ..P...P...P...P.
     44a:	00 00 50 00 00 00 50 00 00 00 00 00 00 00 00 00     ..P...P.........
     45a:	00 00 02 00 02 00 06 00 03 00 8c 00 01 00 d8 00     ................
     46a:	00 00 70 00 00 00 20 00 00 00 00 00 00 00 04 00     ..p... .........
     47a:	00 00 06 00 00 00 62 00 03 00 72 00 03 00 1e 00     ......b...r.....
     48a:	00 00 0c 00 00 00 00 00 00 00 00 00 00 00 fc 00     ................
     49a:	01 00 fe 00 03 00 02 00 02 00 72 00 02 00 72 00     ..........r...r.
     4aa:	02 00 7e 00 02 00 7c 00 00 00 00 00 00 00 f8 00     ..~...|.........
     4ba:	03 00 fc 00 03 00 46 00 00 00 46 00 00 00 fc 00     ......F...F.....
     4ca:	03 00 f8 00 03 00 00 00 00 00 00 00 00 00 02 00     ................
     4da:	02 00 fe 00 03 00 fe 00 03 00 22 00 02 00 22 00     .........."...".
     4ea:	02 00 fe 00 03 00 dc 00 01 00 00 00 00 00 f8 00     ................
     4fa:	00 00 fc 00 01 00 06 00 03 00 02 00 02 00 02 00     ................
     50a:	02 00 8e 00 03 00 8c 00 01 00 00 00 00 00 02 00     ................
     51a:	02 00 fe 00 03 00 fe 00 03 00 02 00 02 00 06 00     ................
     52a:	03 00 fc 00 01 00 f8 00 00 00 00 00 00 00 02 00     ................
     53a:	02 00 fe 00 03 00 fe 00 03 00 22 00 02 00 22 00     .........."...".
     54a:	02 00 72 00 02 00 06 00 03 00 00 00 00 00 02 00     ..r.............
     55a:	02 00 fe 00 03 00 fe 00 03 00 22 00 02 00 22 00     .........."...".
     56a:	00 00 76 00 00 00 0e 00 00 00 00 00 00 00 f8 00     ..v.............
     57a:	00 00 fc 00 01 00 06 00 03 00 02 00 02 00 42 00     ..............B.
     58a:	02 00 ce 00 03 00 cc 00 03 00 00 00 00 00 fe 00     ................
     59a:	03 00 fe 00 03 00 20 00 00 00 20 00 00 00 fe 00     ...... ... .....
     5aa:	03 00 fe 00 03 00 00 00 00 00 00 00 00 00 00 00     ................
     5ba:	00 00 02 00 02 00 fe 00 03 00 fe 00 03 00 02 00     ................
     5ca:	02 00 00 00 00 00 00 00 00 00 00 00 00 00 c0 00     ................
     5da:	01 00 c0 00 03 00 00 00 02 00 02 00 02 00 fe 00     ................
     5ea:	03 00 fe 00 01 00 02 00 00 00 00 00 00 00 02 00     ................
     5fa:	02 00 fe 00 03 00 fe 00 03 00 20 00 00 00 f8 00     .......... .....
     60a:	00 00 de 00 03 00 06 00 03 00 00 00 00 00 02 00     ................
     61a:	02 00 fe 00 03 00 fe 00 03 00 02 00 02 00 00 00     ................
     62a:	02 00 80 00 03 00 c0 00 03 00 00 00 00 00 fe 00     ................
     63a:	03 00 fe 00 03 00 1c 00 00 00 38 00 00 00 1c 00     ..........8.....
     64a:	00 00 fe 00 03 00 fe 00 03 00 00 00 00 00 fe 00     ................
     65a:	03 00 fe 00 03 00 38 00 00 00 70 00 00 00 e0 00     ......8...p.....
     66a:	00 00 fe 00 03 00 fe 00 03 00 00 00 00 00 f8 00     ................
     67a:	00 00 fc 00 01 00 06 00 03 00 02 00 02 00 06 00     ................
     68a:	03 00 fc 00 01 00 f8 00 00 00 00 00 00 00 02 00     ................
     69a:	02 00 fe 00 03 00 fe 00 03 00 22 00 02 00 22 00     .........."...".
     6aa:	00 00 3e 00 00 00 1c 00 00 00 00 00 00 00 f8 00     ..>.............
     6ba:	00 00 fc 00 01 00 06 00 01 00 82 00 05 00 c6 00     ................
     6ca:	07 00 fc 00 07 00 f8 00 04 00 00 00 00 00 02 00     ................
     6da:	02 00 fe 00 03 00 fe 00 03 00 22 00 00 00 62 00     .........."...b.
     6ea:	00 00 fe 00 03 00 9c 00 03 00 00 00 00 00 9c 00     ................
     6fa:	01 00 be 00 03 00 22 00 02 00 62 00 02 00 ce 00     ......"...b.....
     70a:	03 00 8c 00 01 00 00 00 00 00 00 00 00 00 06 00     ................
     71a:	00 00 02 00 02 00 fe 00 03 00 fe 00 03 00 02 00     ................
     72a:	02 00 06 00 00 00 00 00 00 00 00 00 00 00 fe 00     ................
     73a:	01 00 fe 00 03 00 00 00 02 00 00 00 02 00 fe 00     ................
     74a:	03 00 fe 00 01 00 00 00 00 00 00 00 00 00 fe 00     ................
     75a:	00 00 fe 00 01 00 00 00 03 00 00 00 03 00 fe 00     ................
     76a:	01 00 fe 00 00 00 00 00 00 00 00 00 00 00 7e 00     ..............~.
     77a:	00 00 fe 00 03 00 80 00 03 00 60 00 00 00 80 00     ..........`.....
     78a:	03 00 fe 00 03 00 7e 00 00 00 00 00 00 00 8e 00     ......~.........
     79a:	03 00 de 00 03 00 70 00 00 00 70 00 00 00 de 00     ......p...p.....
     7aa:	03 00 8e 00 03 00 00 00 00 00 00 00 00 00 1e 00     ................
     7ba:	00 00 3e 00 02 00 e0 00 03 00 e0 00 03 00 3e 00     ..>...........>.
     7ca:	02 00 1e 00 00 00 00 00 00 00 00 00 00 00 0e 00     ................
     7da:	03 00 c6 00 03 00 e2 00 02 00 3a 00 02 00 1e 00     ..........:.....
     7ea:	02 00 06 00 03 00 86 00 03 00 00 00 00 00 00 00     ................
     7fa:	00 00 00 00 00 00 fe 00 03 00 fe 00 03 00 02 00     ................
     80a:	02 00 02 00 02 00 00 00 00 00 00 00 00 00 0c 00     ................
     81a:	00 00 18 00 00 00 30 00 00 00 60 00 00 00 c0 00     ......0...`.....
     82a:	00 00 80 00 01 00 00 00 03 00 00 00 00 00 00 00     ................
     83a:	00 00 00 00 00 00 02 00 02 00 02 00 02 00 fe 00     ................
     84a:	03 00 fe 00 03 00 00 00 00 00 00 00 00 00 08 00     ................
     85a:	00 00 0c 00 00 00 06 00 00 00 03 00 00 00 06 00     ................
     86a:	00 00 0c 00 00 00 08 00 00 00 00 00 00 00 00 00     ................
     87a:	04 00 00 00 04 00 00 00 04 00 00 00 04 00 00 00     ................
     88a:	04 00 00 00 04 00 00 00 04 00 00 00 04 00 00 00     ................
     89a:	00 00 00 00 00 00 03 00 00 00 07 00 00 00 04 00     ................
	...
     8b6:	00 00 80 00 01 00 d0 00 03 00 50 00 02 00 50 00     ..........P...P.
     8c6:	02 00 f0 00 01 00 e0 00 03 00 00 00 02 00 00 00     ................
     8d6:	00 00 02 00 02 00 fe 00 03 00 fe 00 01 00 10 00     ................
     8e6:	02 00 10 00 02 00 f0 00 03 00 e0 00 01 00 00 00     ................
     8f6:	00 00 e0 00 01 00 f0 00 03 00 10 00 02 00 10 00     ................
     906:	02 00 30 00 03 00 20 00 01 00 00 00 00 00 00 00     ..0... .........
     916:	00 00 e0 00 01 00 f0 00 03 00 10 00 02 00 12 00     ................
     926:	02 00 fe 00 01 00 fe 00 03 00 00 00 02 00 00 00     ................
     936:	00 00 e0 00 01 00 f0 00 03 00 50 00 02 00 50 00     ..........P...P.
     946:	02 00 70 00 03 00 60 00 01 00 00 00 00 00 00 00     ..p...`.........
     956:	00 00 20 00 02 00 fc 00 03 00 fe 00 03 00 22 00     .. ...........".
     966:	02 00 26 00 00 00 04 00 00 00 00 00 00 00 00 00     ..&.............
     976:	00 00 e0 00 04 00 f0 00 0d 00 10 00 09 00 10 00     ................
     986:	09 00 e0 00 0f 00 f0 00 07 00 10 00 00 00 00 00     ................
     996:	00 00 02 00 02 00 fe 00 03 00 fe 00 03 00 20 00     .............. .
     9a6:	00 00 10 00 00 00 f0 00 03 00 e0 00 03 00 00 00     ................
     9b6:	00 00 00 00 00 00 10 00 02 00 10 00 02 00 f6 00     ................
     9c6:	03 00 f6 00 03 00 00 00 02 00 00 00 02 00 00 00     ................
     9d6:	00 00 00 00 06 00 00 00 0e 00 10 00 08 00 10 00     ................
     9e6:	08 00 f6 00 0f 00 f6 00 07 00 00 00 00 00 00 00     ................
     9f6:	00 00 02 00 02 00 fe 00 03 00 fe 00 03 00 40 00     ..............@.
     a06:	00 00 e0 00 00 00 b0 00 03 00 10 00 03 00 00 00     ................
     a16:	00 00 00 00 00 00 02 00 02 00 02 00 02 00 fe 00     ................
     a26:	03 00 fe 00 03 00 00 00 02 00 00 00 02 00 00 00     ................
     a36:	00 00 f0 00 03 00 f0 00 03 00 10 00 00 00 f0 00     ................
     a46:	01 00 10 00 00 00 f0 00 03 00 e0 00 03 00 00 00     ................
     a56:	00 00 f0 00 03 00 f0 00 03 00 10 00 00 00 10 00     ................
     a66:	00 00 f0 00 03 00 e0 00 03 00 00 00 00 00 00 00     ................
     a76:	00 00 e0 00 01 00 f0 00 03 00 10 00 02 00 10 00     ................
     a86:	02 00 f0 00 03 00 e0 00 01 00 00 00 00 00 00 00     ................
     a96:	00 00 10 00 08 00 f0 00 0f 00 e0 00 0f 00 10 00     ................
     aa6:	0a 00 10 00 02 00 f0 00 03 00 e0 00 01 00 00 00     ................
     ab6:	00 00 e0 00 01 00 f0 00 03 00 10 00 02 00 10 00     ................
     ac6:	0a 00 e0 00 0f 00 f0 00 0f 00 10 00 08 00 00 00     ................
     ad6:	00 00 10 00 02 00 f0 00 03 00 f0 00 03 00 40 00     ..............@.
     ae6:	02 00 30 00 00 00 70 00 00 00 60 00 00 00 00 00     ..0...p...`.....
     af6:	00 00 20 00 01 00 70 00 03 00 50 00 02 00 90 00     .. ...p...P.....
     b06:	02 00 b0 00 03 00 20 00 01 00 00 00 00 00 00 00     ...... .........
     b16:	00 00 10 00 00 00 f8 00 01 00 fc 00 03 00 10 00     ................
     b26:	02 00 10 00 03 00 10 00 01 00 00 00 00 00 00 00     ................
     b36:	00 00 f0 00 01 00 f0 00 03 00 00 00 02 00 00 00     ................
     b46:	02 00 f0 00 01 00 f0 00 03 00 00 00 02 00 00 00     ................
     b56:	00 00 f0 00 00 00 f0 00 01 00 00 00 03 00 00 00     ................
     b66:	03 00 f0 00 01 00 f0 00 00 00 00 00 00 00 00 00     ................
     b76:	00 00 f0 00 00 00 f0 00 03 00 00 00 03 00 c0 00     ................
     b86:	00 00 00 00 03 00 f0 00 03 00 f0 00 00 00 00 00     ................
     b96:	00 00 10 00 02 00 30 00 03 00 e0 00 01 00 c0 00     ......0.........
     ba6:	00 00 e0 00 01 00 30 00 03 00 10 00 02 00 00 00     ......0.........
     bb6:	00 00 00 00 08 00 f0 00 08 00 f0 00 09 00 00 00     ................
     bc6:	0d 00 00 00 07 00 f0 00 03 00 f0 00 00 00 00 00     ................
     bd6:	00 00 30 00 03 00 90 00 03 00 90 00 02 00 50 00     ..0...........P.
     be6:	02 00 70 00 02 00 30 00 03 00 00 00 00 00 00 00     ..p...0.........
     bf6:	00 00 20 00 00 00 70 00 00 00 dc 00 01 00 8e 00     .. ...p.........
     c06:	03 00 02 00 02 00 02 00 02 00 00 00 00 00 00 00     ................
	...
     c22:	00 00 de 00 03 00 de 00 03 00 00 00 00 00 00 00     ................
     c32:	00 00 00 00 00 00 02 00 02 00 02 00 02 00 8e 00     ................
     c42:	03 00 dc 00 01 00 70 00 00 00 20 00 00 00 00 00     ......p... .....
     c52:	00 00 00 00 00 00 0c 00 00 00 0e 00 00 00 02 00     ................
     c62:	00 00 06 00 00 00 0c 00 00 00 08 00 00 00 0e 00     ................
     c72:	00 00 02 00 00 00 c0 00 01 00 e0 00 01 00 30 00     ..............0.
     c82:	01 00 18 00 01 00 30 00 01 00 e0 00 01 00 c0 00     ......0.........
     c92:	01 00 00 00 00 00                                   ......

00000c98 <Terminal6x8>:
     c98:	06 00 08 00 20 00 00 00 00 00 00 00 00 00 00 00     .... ...........
     ca8:	00 00 00 00 00 00 06 00 5f 00 06 00 00 00 00 00     ........_.......
     cb8:	07 00 03 00 00 00 07 00 03 00 00 00 24 00 7e 00     ............$.~.
     cc8:	24 00 7e 00 24 00 00 00 24 00 2b 00 6a 00 12 00     $.~.$...$.+.j...
     cd8:	00 00 00 00 63 00 13 00 08 00 64 00 63 00 00 00     ....c.....d.c...
     ce8:	36 00 49 00 56 00 20 00 50 00 00 00 00 00 07 00     6.I.V. .P.......
     cf8:	03 00 00 00 00 00 00 00 00 00 3e 00 41 00 00 00     ..........>.A...
     d08:	00 00 00 00 00 00 41 00 3e 00 00 00 00 00 00 00     ......A.>.......
     d18:	08 00 3e 00 1c 00 3e 00 08 00 00 00 08 00 08 00     ..>...>.........
     d28:	3e 00 08 00 08 00 00 00 00 00 e0 00 60 00 00 00     >...........`...
     d38:	00 00 00 00 08 00 08 00 08 00 08 00 08 00 00 00     ................
     d48:	00 00 60 00 60 00 00 00 00 00 00 00 20 00 10 00     ..`.`....... ...
     d58:	08 00 04 00 02 00 00 00 3e 00 51 00 49 00 45 00     ........>.Q.I.E.
     d68:	3e 00 00 00 00 00 42 00 7f 00 40 00 00 00 00 00     >.....B...@.....
     d78:	62 00 51 00 49 00 49 00 46 00 00 00 22 00 49 00     b.Q.I.I.F...".I.
     d88:	49 00 49 00 36 00 00 00 18 00 14 00 12 00 7f 00     I.I.6...........
     d98:	10 00 00 00 2f 00 49 00 49 00 49 00 31 00 00 00     ..../.I.I.I.1...
     da8:	3c 00 4a 00 49 00 49 00 30 00 00 00 01 00 71 00     <.J.I.I.0.....q.
     db8:	09 00 05 00 03 00 00 00 36 00 49 00 49 00 49 00     ........6.I.I.I.
     dc8:	36 00 00 00 06 00 49 00 49 00 29 00 1e 00 00 00     6.....I.I.).....
     dd8:	00 00 6c 00 6c 00 00 00 00 00 00 00 00 00 ec 00     ..l.l...........
     de8:	6c 00 00 00 00 00 00 00 08 00 14 00 22 00 41 00     l...........".A.
     df8:	00 00 00 00 24 00 24 00 24 00 24 00 24 00 00 00     ....$.$.$.$.$...
     e08:	00 00 41 00 22 00 14 00 08 00 00 00 02 00 01 00     ..A."...........
     e18:	59 00 09 00 06 00 00 00 3e 00 41 00 5d 00 55 00     Y.......>.A.].U.
     e28:	1e 00 00 00 7e 00 11 00 11 00 11 00 7e 00 00 00     ....~.......~...
     e38:	7f 00 49 00 49 00 49 00 36 00 00 00 3e 00 41 00     ..I.I.I.6...>.A.
     e48:	41 00 41 00 22 00 00 00 7f 00 41 00 41 00 41 00     A.A.".....A.A.A.
     e58:	3e 00 00 00 7f 00 49 00 49 00 49 00 41 00 00 00     >.....I.I.I.A...
     e68:	7f 00 09 00 09 00 09 00 01 00 00 00 3e 00 41 00     ............>.A.
     e78:	49 00 49 00 7a 00 00 00 7f 00 08 00 08 00 08 00     I.I.z...........
     e88:	7f 00 00 00 00 00 41 00 7f 00 41 00 00 00 00 00     ......A...A.....
     e98:	30 00 40 00 40 00 40 00 3f 00 00 00 7f 00 08 00     0.@.@.@.?.......
     ea8:	14 00 22 00 41 00 00 00 7f 00 40 00 40 00 40 00     ..".A.....@.@.@.
     eb8:	40 00 00 00 7f 00 02 00 04 00 02 00 7f 00 00 00     @...............
     ec8:	7f 00 02 00 04 00 08 00 7f 00 00 00 3e 00 41 00     ............>.A.
     ed8:	41 00 41 00 3e 00 00 00 7f 00 09 00 09 00 09 00     A.A.>...........
     ee8:	06 00 00 00 3e 00 41 00 51 00 21 00 5e 00 00 00     ....>.A.Q.!.^...
     ef8:	7f 00 09 00 09 00 19 00 66 00 00 00 26 00 49 00     ........f...&.I.
     f08:	49 00 49 00 32 00 00 00 01 00 01 00 7f 00 01 00     I.I.2...........
     f18:	01 00 00 00 3f 00 40 00 40 00 40 00 3f 00 00 00     ....?.@.@.@.?...
     f28:	1f 00 20 00 40 00 20 00 1f 00 00 00 3f 00 40 00     .. .@. .....?.@.
     f38:	3c 00 40 00 3f 00 00 00 63 00 14 00 08 00 14 00     <.@.?...c.......
     f48:	63 00 00 00 07 00 08 00 70 00 08 00 07 00 00 00     c.......p.......
     f58:	71 00 49 00 45 00 43 00 00 00 00 00 00 00 7f 00     q.I.E.C.........
     f68:	41 00 41 00 00 00 00 00 02 00 04 00 08 00 10 00     A.A.............
     f78:	20 00 00 00 00 00 41 00 41 00 7f 00 00 00 00 00      .....A.A.......
     f88:	04 00 02 00 01 00 02 00 04 00 80 00 80 00 80 00     ................
     f98:	80 00 80 00 80 00 00 00 00 00 03 00 07 00 00 00     ................
     fa8:	00 00 00 00 20 00 54 00 54 00 54 00 78 00 00 00     .... .T.T.T.x...
     fb8:	7f 00 44 00 44 00 44 00 38 00 00 00 38 00 44 00     ..D.D.D.8...8.D.
     fc8:	44 00 44 00 28 00 00 00 38 00 44 00 44 00 44 00     D.D.(...8.D.D.D.
     fd8:	7f 00 00 00 38 00 54 00 54 00 54 00 08 00 00 00     ....8.T.T.T.....
     fe8:	08 00 7e 00 09 00 09 00 00 00 00 00 18 00 a4 00     ..~.............
     ff8:	a4 00 a4 00 7c 00 00 00 7f 00 04 00 04 00 78 00     ....|.........x.
	...
    1010:	7d 00 40 00 00 00 00 00 40 00 80 00 84 00 7d 00     }.@.....@.....}.
    1020:	00 00 00 00 7f 00 10 00 28 00 44 00 00 00 00 00     ........(.D.....
    1030:	00 00 00 00 7f 00 40 00 00 00 00 00 7c 00 04 00     ......@.....|...
    1040:	18 00 04 00 78 00 00 00 7c 00 04 00 04 00 78 00     ....x...|.....x.
    1050:	00 00 00 00 38 00 44 00 44 00 44 00 38 00 00 00     ....8.D.D.D.8...
    1060:	fc 00 44 00 44 00 44 00 38 00 00 00 38 00 44 00     ..D.D.D.8...8.D.
    1070:	44 00 44 00 fc 00 00 00 44 00 78 00 44 00 04 00     D.D.....D.x.D...
    1080:	08 00 00 00 08 00 54 00 54 00 54 00 20 00 00 00     ......T.T.T. ...
    1090:	04 00 3e 00 44 00 24 00 00 00 00 00 3c 00 40 00     ..>.D.$.....<.@.
    10a0:	20 00 7c 00 00 00 00 00 1c 00 20 00 40 00 20 00      .|....... .@. .
    10b0:	1c 00 00 00 3c 00 60 00 30 00 60 00 3c 00 00 00     ....<.`.0.`.<...
    10c0:	6c 00 10 00 10 00 6c 00 00 00 00 00 9c 00 a0 00     l.....l.........
    10d0:	60 00 3c 00 00 00 00 00 64 00 54 00 54 00 4c 00     `.<.....d.T.T.L.
    10e0:	00 00 00 00 08 00 3e 00 41 00 41 00 00 00 00 00     ......>.A.A.....
    10f0:	00 00 00 00 77 00 00 00 00 00 00 00 00 00 41 00     ....w.........A.
    1100:	41 00 3e 00 08 00 00 00 02 00 01 00 02 00 01 00     A.>.............
    1110:	00 00 00 00 3c 00 26 00 23 00 26 00 3c 00           ....<.&.#.&.<.

0000111e <Terminal4x6>:
    111e:	04 00 06 00 20 00 00 00 00 00 00 00 00 00 00 00     .... ...........
    112e:	00 00 17 00 00 00 00 00 03 00 00 00 03 00 00 00     ................
    113e:	1f 00 0a 00 1f 00 00 00 14 00 3f 00 0a 00 00 00     ..........?.....
    114e:	09 00 04 00 12 00 00 00 1a 00 15 00 1e 00 00 00     ................
    115e:	03 00 01 00 00 00 00 00 0e 00 11 00 00 00 00 00     ................
    116e:	11 00 0e 00 00 00 00 00 15 00 0e 00 15 00 00 00     ................
    117e:	04 00 0e 00 04 00 00 00 30 00 10 00 00 00 00 00     ........0.......
    118e:	04 00 04 00 04 00 00 00 00 00 10 00 00 00 10 00     ................
    119e:	08 00 04 00 02 00 00 00 1f 00 11 00 1f 00 00 00     ................
    11ae:	12 00 1f 00 10 00 00 00 19 00 15 00 13 00 00 00     ................
    11be:	11 00 15 00 0a 00 00 00 07 00 04 00 1f 00 00 00     ................
    11ce:	17 00 15 00 0d 00 00 00 1f 00 15 00 1c 00 00 00     ................
    11de:	01 00 1d 00 03 00 00 00 1f 00 15 00 1f 00 00 00     ................
    11ee:	07 00 15 00 1f 00 00 00 00 00 14 00 00 00 00 00     ................
    11fe:	30 00 14 00 00 00 00 00 04 00 0a 00 11 00 00 00     0...............
    120e:	14 00 14 00 14 00 00 00 11 00 0a 00 04 00 00 00     ................
    121e:	01 00 15 00 02 00 00 00 1f 00 11 00 17 00 00 00     ................
    122e:	1e 00 05 00 1e 00 00 00 1f 00 15 00 0a 00 00 00     ................
    123e:	0e 00 11 00 11 00 00 00 1f 00 11 00 0e 00 00 00     ................
    124e:	1f 00 15 00 11 00 00 00 1f 00 05 00 01 00 00 00     ................
    125e:	0e 00 11 00 1d 00 00 00 1f 00 04 00 1f 00 00 00     ................
    126e:	11 00 1f 00 11 00 00 00 08 00 10 00 0f 00 00 00     ................
    127e:	1f 00 04 00 1b 00 00 00 1f 00 10 00 10 00 00 00     ................
    128e:	1f 00 06 00 1f 00 00 00 1f 00 02 00 1f 00 00 00     ................
    129e:	0e 00 11 00 0e 00 00 00 1f 00 05 00 02 00 00 00     ................
    12ae:	0e 00 19 00 1e 00 00 00 1f 00 05 00 1a 00 00 00     ................
    12be:	16 00 15 00 0d 00 00 00 01 00 1f 00 01 00 00 00     ................
    12ce:	1f 00 10 00 1f 00 00 00 0f 00 10 00 0f 00 00 00     ................
    12de:	1f 00 0c 00 1f 00 00 00 1b 00 04 00 1b 00 00 00     ................
    12ee:	03 00 1c 00 03 00 00 00 19 00 15 00 13 00 00 00     ................
    12fe:	1f 00 11 00 00 00 00 00 03 00 04 00 18 00 00 00     ................
    130e:	11 00 1f 00 00 00 00 00 02 00 01 00 02 00 20 00     .............. .
    131e:	20 00 20 00 20 00 00 00 01 00 03 00 00 00 00 00      . . ...........
    132e:	18 00 14 00 1c 00 00 00 1f 00 14 00 08 00 00 00     ................
    133e:	08 00 14 00 14 00 00 00 08 00 14 00 1f 00 00 00     ................
    134e:	0c 00 1c 00 14 00 00 00 04 00 1e 00 05 00 00 00     ................
    135e:	2c 00 24 00 3c 00 00 00 1f 00 04 00 18 00 00 00     ,.$.<...........
    136e:	00 00 1d 00 00 00 00 00 20 00 3d 00 00 00 00 00     ........ .=.....
    137e:	1f 00 08 00 14 00 00 00 00 00 1f 00 00 00 00 00     ................
    138e:	1c 00 0c 00 1c 00 00 00 1c 00 04 00 18 00 00 00     ................
    139e:	08 00 14 00 08 00 00 00 3c 00 14 00 08 00 00 00     ........<.......
    13ae:	08 00 14 00 3c 00 00 00 1c 00 04 00 00 00 00 00     ....<...........
    13be:	10 00 1c 00 04 00 00 00 04 00 1e 00 14 00 00 00     ................
    13ce:	1c 00 10 00 1c 00 00 00 0c 00 10 00 0c 00 00 00     ................
    13de:	1c 00 18 00 1c 00 00 00 14 00 08 00 14 00 00 00     ................
    13ee:	2c 00 10 00 0c 00 00 00 04 00 1c 00 10 00 00 00     ,...............
    13fe:	04 00 1f 00 11 00 00 00 00 00 1f 00 00 00 00 00     ................
    140e:	11 00 1f 00 04 00 02 00 01 00 02 00 01 00 00 00     ................
    141e:	0c 00 0a 00 0c 00                                   ......

00001424 <__ctors_end>:
    1424:	11 24       	eor	r1, r1
    1426:	1f be       	out	0x3f, r1	; 63
    1428:	cf ef       	ldi	r28, 0xFF	; 255
    142a:	d0 e4       	ldi	r29, 0x40	; 64
    142c:	de bf       	out	0x3e, r29	; 62
    142e:	cd bf       	out	0x3d, r28	; 61

00001430 <__do_copy_data>:
    1430:	11 e0       	ldi	r17, 0x01	; 1
    1432:	a0 e0       	ldi	r26, 0x00	; 0
    1434:	b1 e0       	ldi	r27, 0x01	; 1
    1436:	e2 e6       	ldi	r30, 0x62	; 98
    1438:	fd e1       	ldi	r31, 0x1D	; 29
    143a:	00 e0       	ldi	r16, 0x00	; 0
    143c:	0b bf       	out	0x3b, r16	; 59
    143e:	02 c0       	rjmp	.+4      	; 0x1444 <__do_copy_data+0x14>
    1440:	07 90       	elpm	r0, Z+
    1442:	0d 92       	st	X+, r0
    1444:	a6 32       	cpi	r26, 0x26	; 38
    1446:	b1 07       	cpc	r27, r17
    1448:	d9 f7       	brne	.-10     	; 0x1440 <__do_copy_data+0x10>

0000144a <__do_clear_bss>:
    144a:	21 e0       	ldi	r18, 0x01	; 1
    144c:	a6 e2       	ldi	r26, 0x26	; 38
    144e:	b1 e0       	ldi	r27, 0x01	; 1
    1450:	01 c0       	rjmp	.+2      	; 0x1454 <.do_clear_bss_start>

00001452 <.do_clear_bss_loop>:
    1452:	1d 92       	st	X+, r1

00001454 <.do_clear_bss_start>:
    1454:	a6 32       	cpi	r26, 0x26	; 38
    1456:	b2 07       	cpc	r27, r18
    1458:	e1 f7       	brne	.-8      	; 0x1452 <.do_clear_bss_loop>
    145a:	09 d0       	rcall	.+18     	; 0x146e <main>
    145c:	80 c4       	rjmp	.+2304   	; 0x1d5e <_exit>

0000145e <__bad_interrupt>:
    145e:	0c 94 00 00 	jmp	0	; 0x0 <__vectors>

00001462 <init>:
FILE uart_input = FDEV_SETUP_STREAM(NULL,uart_getchar, _FDEV_SETUP_READ);
unsigned char counter = 0x00;


void init() {
	PORTB = (1 << 4);
    1462:	80 e1       	ldi	r24, 0x10	; 16
    1464:	85 b9       	out	0x05, r24	; 5
	DDRB = (1 << 7) | (1 << 5) | (1 << 4) | 1; // (MOSI,SCK,SS) should be output
    1466:	81 eb       	ldi	r24, 0xB1	; 177
    1468:	84 b9       	out	0x04, r24	; 4


	tft144_init();
    146a:	b6 c1       	rjmp	.+876    	; 0x17d8 <tft144_init>
    146c:	08 95       	ret

0000146e <main>:
}

int main() {
    146e:	cf 93       	push	r28
    1470:	df 93       	push	r29
    1472:	cd b7       	in	r28, 0x3d	; 61
    1474:	de b7       	in	r29, 0x3e	; 62
    1476:	27 97       	sbiw	r28, 0x07	; 7
    1478:	0f b6       	in	r0, 0x3f	; 63
    147a:	f8 94       	cli
    147c:	de bf       	out	0x3e, r29	; 62
    147e:	0f be       	out	0x3f, r0	; 63
    1480:	cd bf       	out	0x3d, r28	; 61
	u8 a,b,str[2]={0,0};
	float v=0;
	uint8_t x[4]={0,0,60,100},y[4]={0,40,30,90};

	init();
    1482:	ef df       	rcall	.-34     	; 0x1462 <init>
	#else
		//round up by default
		__ticks_dc = (uint32_t)(ceil(fabs(__tmp)));
	#endif

	__builtin_avr_delay_cycles(__ticks_dc);
    1484:	2f e3       	ldi	r18, 0x3F	; 63
    1486:	82 e4       	ldi	r24, 0x42	; 66
    1488:	9f e0       	ldi	r25, 0x0F	; 15
    148a:	21 50       	subi	r18, 0x01	; 1
    148c:	80 40       	sbci	r24, 0x00	; 0
    148e:	90 40       	sbci	r25, 0x00	; 0
    1490:	e1 f7       	brne	.-8      	; 0x148a <main+0x1c>
    1492:	00 c0       	rjmp	.+0      	; 0x1494 <main+0x26>
    1494:	00 00       	nop
	tft144_putstring("UART Sniffer\nBaud 115200\n",&a,&b,WHITE,BLACK,1);
	tft144_draw_line(0,16,127,16,RED);
	tft144_clear_display(BLACK);
	*/
	_delay_ms(5000);
	tft144_draw_line(0,5,64,5,RED);
    1496:	0f e1       	ldi	r16, 0x1F	; 31
    1498:	10 e0       	ldi	r17, 0x00	; 0
    149a:	25 e0       	ldi	r18, 0x05	; 5
    149c:	40 e4       	ldi	r20, 0x40	; 64
    149e:	65 e0       	ldi	r22, 0x05	; 5
    14a0:	80 e0       	ldi	r24, 0x00	; 0
    14a2:	c7 d1       	rcall	.+910    	; 0x1832 <tft144_draw_line>
	
	tft144_draw_line(64,5,64,20,RED);
    14a4:	24 e1       	ldi	r18, 0x14	; 20
    14a6:	40 e4       	ldi	r20, 0x40	; 64
    14a8:	65 e0       	ldi	r22, 0x05	; 5
    14aa:	80 e4       	ldi	r24, 0x40	; 64
    14ac:	c2 d1       	rcall	.+900    	; 0x1832 <tft144_draw_line>
	tft144_draw_circle(64,32,12,RED);//head
    14ae:	2f e1       	ldi	r18, 0x1F	; 31
    14b0:	30 e0       	ldi	r19, 0x00	; 0
    14b2:	4c e0       	ldi	r20, 0x0C	; 12
    14b4:	60 e2       	ldi	r22, 0x20	; 32
    14b6:	80 e4       	ldi	r24, 0x40	; 64
    14b8:	31 d2       	rcall	.+1122   	; 0x191c <tft144_draw_circle>
    14ba:	2f e3       	ldi	r18, 0x3F	; 63
    14bc:	82 e4       	ldi	r24, 0x42	; 66
    14be:	9f e0       	ldi	r25, 0x0F	; 15
    14c0:	21 50       	subi	r18, 0x01	; 1
    14c2:	80 40       	sbci	r24, 0x00	; 0
    14c4:	90 40       	sbci	r25, 0x00	; 0
    14c6:	e1 f7       	brne	.-8      	; 0x14c0 <main+0x52>
    14c8:	00 c0       	rjmp	.+0      	; 0x14ca <main+0x5c>
    14ca:	00 00       	nop
	_delay_ms(5000);
	
	tft144_draw_line(64,44,64,75,RED);//torso
    14cc:	2b e4       	ldi	r18, 0x4B	; 75
    14ce:	40 e4       	ldi	r20, 0x40	; 64
    14d0:	6c e2       	ldi	r22, 0x2C	; 44
    14d2:	80 e4       	ldi	r24, 0x40	; 64
    14d4:	ae d1       	rcall	.+860    	; 0x1832 <tft144_draw_line>
    14d6:	2f e3       	ldi	r18, 0x3F	; 63
    14d8:	82 e4       	ldi	r24, 0x42	; 66
    14da:	9f e0       	ldi	r25, 0x0F	; 15
    14dc:	21 50       	subi	r18, 0x01	; 1
    14de:	80 40       	sbci	r24, 0x00	; 0
    14e0:	90 40       	sbci	r25, 0x00	; 0
    14e2:	e1 f7       	brne	.-8      	; 0x14dc <main+0x6e>
    14e4:	00 c0       	rjmp	.+0      	; 0x14e6 <main+0x78>
	_delay_ms(5000);
	tft144_draw_line(64,48,44,65,RED);//left arm
    14e6:	00 00       	nop
    14e8:	21 e4       	ldi	r18, 0x41	; 65
    14ea:	4c e2       	ldi	r20, 0x2C	; 44
    14ec:	60 e3       	ldi	r22, 0x30	; 48
    14ee:	80 e4       	ldi	r24, 0x40	; 64
    14f0:	a0 d1       	rcall	.+832    	; 0x1832 <tft144_draw_line>
    14f2:	2f e3       	ldi	r18, 0x3F	; 63
    14f4:	82 e4       	ldi	r24, 0x42	; 66
    14f6:	9f e0       	ldi	r25, 0x0F	; 15
    14f8:	21 50       	subi	r18, 0x01	; 1
    14fa:	80 40       	sbci	r24, 0x00	; 0
    14fc:	90 40       	sbci	r25, 0x00	; 0
    14fe:	e1 f7       	brne	.-8      	; 0x14f8 <main+0x8a>
    1500:	00 c0       	rjmp	.+0      	; 0x1502 <main+0x94>
	_delay_ms(5000);
	tft144_draw_line(64,48,84,65,RED);//right arm
    1502:	00 00       	nop
    1504:	21 e4       	ldi	r18, 0x41	; 65
    1506:	44 e5       	ldi	r20, 0x54	; 84
    1508:	60 e3       	ldi	r22, 0x30	; 48
    150a:	80 e4       	ldi	r24, 0x40	; 64
    150c:	92 d1       	rcall	.+804    	; 0x1832 <tft144_draw_line>
    150e:	2f e3       	ldi	r18, 0x3F	; 63
    1510:	82 e4       	ldi	r24, 0x42	; 66
    1512:	9f e0       	ldi	r25, 0x0F	; 15
    1514:	21 50       	subi	r18, 0x01	; 1
    1516:	80 40       	sbci	r24, 0x00	; 0
    1518:	90 40       	sbci	r25, 0x00	; 0
    151a:	e1 f7       	brne	.-8      	; 0x1514 <main+0xa6>
    151c:	00 c0       	rjmp	.+0      	; 0x151e <main+0xb0>
	_delay_ms(5000);
	tft144_draw_line(64,75,80,85,RED);//right leg
    151e:	00 00       	nop
    1520:	25 e5       	ldi	r18, 0x55	; 85
    1522:	40 e5       	ldi	r20, 0x50	; 80
    1524:	6b e4       	ldi	r22, 0x4B	; 75
    1526:	80 e4       	ldi	r24, 0x40	; 64
    1528:	84 d1       	rcall	.+776    	; 0x1832 <tft144_draw_line>
    152a:	2f e3       	ldi	r18, 0x3F	; 63
    152c:	82 e4       	ldi	r24, 0x42	; 66
    152e:	9f e0       	ldi	r25, 0x0F	; 15
    1530:	21 50       	subi	r18, 0x01	; 1
    1532:	80 40       	sbci	r24, 0x00	; 0
    1534:	90 40       	sbci	r25, 0x00	; 0
    1536:	e1 f7       	brne	.-8      	; 0x1530 <main+0xc2>
    1538:	00 c0       	rjmp	.+0      	; 0x153a <main+0xcc>
	_delay_ms(5000);
	tft144_draw_line(64,75,44,85,RED);//left leg
    153a:	00 00       	nop
    153c:	25 e5       	ldi	r18, 0x55	; 85
    153e:	4c e2       	ldi	r20, 0x2C	; 44
    1540:	6b e4       	ldi	r22, 0x4B	; 75
    1542:	80 e4       	ldi	r24, 0x40	; 64
    1544:	76 d1       	rcall	.+748    	; 0x1832 <tft144_draw_line>
    1546:	2f e3       	ldi	r18, 0x3F	; 63
    1548:	82 e4       	ldi	r24, 0x42	; 66
    154a:	9f e0       	ldi	r25, 0x0F	; 15
    154c:	21 50       	subi	r18, 0x01	; 1
    154e:	80 40       	sbci	r24, 0x00	; 0
    1550:	90 40       	sbci	r25, 0x00	; 0
    1552:	e1 f7       	brne	.-8      	; 0x154c <main+0xde>
    1554:	00 c0       	rjmp	.+0      	; 0x1556 <main+0xe8>
    1556:	00 00       	nop
	_delay_ms(5000);
	unsigned char array[7] = "0123456";
    1558:	87 e0       	ldi	r24, 0x07	; 7
    155a:	e0 e0       	ldi	r30, 0x00	; 0
    155c:	f1 e0       	ldi	r31, 0x01	; 1
    155e:	de 01       	movw	r26, r28
    1560:	11 96       	adiw	r26, 0x01	; 1
    1562:	01 90       	ld	r0, Z+
    1564:	0d 92       	st	X+, r0
    1566:	8a 95       	dec	r24
    1568:	e1 f7       	brne	.-8      	; 0x1562 <main+0xf4>
	tft144_putstring(array,10,10,WHITE,BLACK,1);
    156a:	ee 24       	eor	r14, r14
    156c:	e3 94       	inc	r14
    156e:	00 e0       	ldi	r16, 0x00	; 0
    1570:	10 e0       	ldi	r17, 0x00	; 0
    1572:	2f ef       	ldi	r18, 0xFF	; 255
    1574:	3f ef       	ldi	r19, 0xFF	; 255
    1576:	4a e0       	ldi	r20, 0x0A	; 10
    1578:	50 e0       	ldi	r21, 0x00	; 0
    157a:	6a e0       	ldi	r22, 0x0A	; 10
    157c:	70 e0       	ldi	r23, 0x00	; 0
    157e:	ce 01       	movw	r24, r28
    1580:	01 96       	adiw	r24, 0x01	; 1
    1582:	22 d3       	rcall	.+1604   	; 0x1bc8 <tft144_putstring>
    1584:	ff cf       	rjmp	.-2      	; 0x1584 <main+0x116>

00001586 <spi_write>:
	for (a = 0; a < (1 + x1 - x0); a++)
		for (b = 0; b < (y1 - y0); b++) {
			spi_write(color_hi);
			spi_write(color_lo);
		}
}
    1586:	28 98       	cbi	0x05, 0	; 5
    1588:	8e bd       	out	0x2e, r24	; 46
    158a:	0d b4       	in	r0, 0x2d	; 45
    158c:	07 fe       	sbrs	r0, 7
    158e:	fd cf       	rjmp	.-6      	; 0x158a <spi_write+0x4>
    1590:	28 9a       	sbi	0x05, 0	; 5
    1592:	08 95       	ret

00001594 <tft144_ledon>:
    1594:	88 23       	and	r24, r24
    1596:	11 f0       	breq	.+4      	; 0x159c <tft144_ledon+0x8>
    1598:	2b 9a       	sbi	0x05, 3	; 5
    159a:	08 95       	ret
    159c:	2b 98       	cbi	0x05, 3	; 5
    159e:	08 95       	ret

000015a0 <tft144_reset>:
    15a0:	29 98       	cbi	0x05, 1	; 5
    15a2:	8f e4       	ldi	r24, 0x4F	; 79
    15a4:	93 ec       	ldi	r25, 0xC3	; 195
    15a6:	01 97       	sbiw	r24, 0x01	; 1
    15a8:	f1 f7       	brne	.-4      	; 0x15a6 <tft144_reset+0x6>
    15aa:	00 c0       	rjmp	.+0      	; 0x15ac <tft144_reset+0xc>
    15ac:	00 00       	nop
    15ae:	29 9a       	sbi	0x05, 1	; 5
    15b0:	8f e4       	ldi	r24, 0x4F	; 79
    15b2:	93 ec       	ldi	r25, 0xC3	; 195
    15b4:	01 97       	sbiw	r24, 0x01	; 1
    15b6:	f1 f7       	brne	.-4      	; 0x15b4 <tft144_reset+0x14>
    15b8:	00 c0       	rjmp	.+0      	; 0x15ba <tft144_reset+0x1a>
    15ba:	00 00       	nop
    15bc:	08 95       	ret

000015be <tft144_write_command>:
    15be:	2a 98       	cbi	0x05, 2	; 5
    15c0:	e2 cf       	rjmp	.-60     	; 0x1586 <spi_write>
    15c2:	08 95       	ret

000015c4 <tft144_write_data>:
    15c4:	0f 93       	push	r16
    15c6:	1f 93       	push	r17
    15c8:	cf 93       	push	r28
    15ca:	df 93       	push	r29
    15cc:	2a 9a       	sbi	0x05, 2	; 5
    15ce:	00 97       	sbiw	r24, 0x00	; 0
    15d0:	71 f0       	breq	.+28     	; 0x15ee <tft144_write_data+0x2a>
    15d2:	42 30       	cpi	r20, 0x02	; 2
    15d4:	60 f0       	brcs	.+24     	; 0x15ee <tft144_write_data+0x2a>
    15d6:	44 23       	and	r20, r20
    15d8:	61 f0       	breq	.+24     	; 0x15f2 <tft144_write_data+0x2e>
    15da:	ec 01       	movw	r28, r24
    15dc:	8c 01       	movw	r16, r24
    15de:	04 0f       	add	r16, r20
    15e0:	11 1d       	adc	r17, r1
    15e2:	89 91       	ld	r24, Y+
    15e4:	d0 df       	rcall	.-96     	; 0x1586 <spi_write>
    15e6:	0c 17       	cp	r16, r28
    15e8:	1d 07       	cpc	r17, r29
    15ea:	d9 f7       	brne	.-10     	; 0x15e2 <tft144_write_data+0x1e>
    15ec:	02 c0       	rjmp	.+4      	; 0x15f2 <tft144_write_data+0x2e>
    15ee:	86 2f       	mov	r24, r22
    15f0:	ca df       	rcall	.-108    	; 0x1586 <spi_write>
    15f2:	df 91       	pop	r29
    15f4:	cf 91       	pop	r28
    15f6:	1f 91       	pop	r17
    15f8:	0f 91       	pop	r16
    15fa:	08 95       	ret

000015fc <tft144_set_frame>:
    15fc:	0f 93       	push	r16
    15fe:	1f 93       	push	r17
    1600:	cf 93       	push	r28
    1602:	df 93       	push	r29
    1604:	08 2f       	mov	r16, r24
    1606:	16 2f       	mov	r17, r22
    1608:	d4 2f       	mov	r29, r20
    160a:	c2 2f       	mov	r28, r18
    160c:	8a e2       	ldi	r24, 0x2A	; 42
    160e:	d7 df       	rcall	.-82     	; 0x15be <tft144_write_command>
    1610:	41 e0       	ldi	r20, 0x01	; 1
    1612:	60 e0       	ldi	r22, 0x00	; 0
    1614:	80 e0       	ldi	r24, 0x00	; 0
    1616:	90 e0       	ldi	r25, 0x00	; 0
    1618:	d5 df       	rcall	.-86     	; 0x15c4 <tft144_write_data>
    161a:	41 e0       	ldi	r20, 0x01	; 1
    161c:	60 2f       	mov	r22, r16
    161e:	80 e0       	ldi	r24, 0x00	; 0
    1620:	90 e0       	ldi	r25, 0x00	; 0
    1622:	d0 df       	rcall	.-96     	; 0x15c4 <tft144_write_data>
    1624:	41 e0       	ldi	r20, 0x01	; 1
    1626:	60 e0       	ldi	r22, 0x00	; 0
    1628:	80 e0       	ldi	r24, 0x00	; 0
    162a:	90 e0       	ldi	r25, 0x00	; 0
    162c:	cb df       	rcall	.-106    	; 0x15c4 <tft144_write_data>
    162e:	41 e0       	ldi	r20, 0x01	; 1
    1630:	61 2f       	mov	r22, r17
    1632:	80 e0       	ldi	r24, 0x00	; 0
    1634:	90 e0       	ldi	r25, 0x00	; 0
    1636:	c6 df       	rcall	.-116    	; 0x15c4 <tft144_write_data>
    1638:	8b e2       	ldi	r24, 0x2B	; 43
    163a:	c1 df       	rcall	.-126    	; 0x15be <tft144_write_command>
    163c:	41 e0       	ldi	r20, 0x01	; 1
    163e:	60 e0       	ldi	r22, 0x00	; 0
    1640:	80 e0       	ldi	r24, 0x00	; 0
    1642:	90 e0       	ldi	r25, 0x00	; 0
    1644:	bf df       	rcall	.-130    	; 0x15c4 <tft144_write_data>
    1646:	41 e0       	ldi	r20, 0x01	; 1
    1648:	6d 2f       	mov	r22, r29
    164a:	80 e0       	ldi	r24, 0x00	; 0
    164c:	90 e0       	ldi	r25, 0x00	; 0
    164e:	ba df       	rcall	.-140    	; 0x15c4 <tft144_write_data>
    1650:	41 e0       	ldi	r20, 0x01	; 1
    1652:	60 e0       	ldi	r22, 0x00	; 0
    1654:	80 e0       	ldi	r24, 0x00	; 0
    1656:	90 e0       	ldi	r25, 0x00	; 0
    1658:	b5 df       	rcall	.-150    	; 0x15c4 <tft144_write_data>
    165a:	41 e0       	ldi	r20, 0x01	; 1
    165c:	6c 2f       	mov	r22, r28
    165e:	80 e0       	ldi	r24, 0x00	; 0
    1660:	90 e0       	ldi	r25, 0x00	; 0
    1662:	b0 df       	rcall	.-160    	; 0x15c4 <tft144_write_data>
    1664:	df 91       	pop	r29
    1666:	cf 91       	pop	r28
    1668:	1f 91       	pop	r17
    166a:	0f 91       	pop	r16
    166c:	08 95       	ret

0000166e <tft144_clear_display>:
    166e:	0f 93       	push	r16
    1670:	1f 93       	push	r17
    1672:	cf 93       	push	r28
    1674:	df 93       	push	r29
    1676:	09 2f       	mov	r16, r25
    1678:	18 2f       	mov	r17, r24
    167a:	2f e7       	ldi	r18, 0x7F	; 127
    167c:	40 e0       	ldi	r20, 0x00	; 0
    167e:	6f e7       	ldi	r22, 0x7F	; 127
    1680:	80 e0       	ldi	r24, 0x00	; 0
    1682:	bc df       	rcall	.-136    	; 0x15fc <tft144_set_frame>
    1684:	8c e2       	ldi	r24, 0x2C	; 44
    1686:	9b df       	rcall	.-202    	; 0x15be <tft144_write_command>
    1688:	2a 9a       	sbi	0x05, 2	; 5
    168a:	c0 e0       	ldi	r28, 0x00	; 0
    168c:	d0 e4       	ldi	r29, 0x40	; 64
    168e:	80 2f       	mov	r24, r16
    1690:	7a df       	rcall	.-268    	; 0x1586 <spi_write>
    1692:	81 2f       	mov	r24, r17
    1694:	78 df       	rcall	.-272    	; 0x1586 <spi_write>
    1696:	21 97       	sbiw	r28, 0x01	; 1
    1698:	d1 f7       	brne	.-12     	; 0x168e <tft144_clear_display+0x20>
    169a:	df 91       	pop	r29
    169c:	cf 91       	pop	r28
    169e:	1f 91       	pop	r17
    16a0:	0f 91       	pop	r16
    16a2:	08 95       	ret

000016a4 <tft144_init_lcd>:
    16a4:	1f 93       	push	r17
    16a6:	cf 93       	push	r28
    16a8:	df 93       	push	r29
    16aa:	cd b7       	in	r28, 0x3d	; 61
    16ac:	de b7       	in	r29, 0x3e	; 62
    16ae:	a4 97       	sbiw	r28, 0x24	; 36
    16b0:	0f b6       	in	r0, 0x3f	; 63
    16b2:	f8 94       	cli
    16b4:	de bf       	out	0x3e, r29	; 62
    16b6:	0f be       	out	0x3f, r0	; 63
    16b8:	cd bf       	out	0x3d, r28	; 61
    16ba:	18 2f       	mov	r17, r24
    16bc:	8f e0       	ldi	r24, 0x0F	; 15
    16be:	e8 e0       	ldi	r30, 0x08	; 8
    16c0:	f1 e0       	ldi	r31, 0x01	; 1
    16c2:	de 01       	movw	r26, r28
    16c4:	11 96       	adiw	r26, 0x01	; 1
    16c6:	01 90       	ld	r0, Z+
    16c8:	0d 92       	st	X+, r0
    16ca:	8a 95       	dec	r24
    16cc:	e1 f7       	brne	.-8      	; 0x16c6 <tft144_init_lcd+0x22>
    16ce:	8f e0       	ldi	r24, 0x0F	; 15
    16d0:	e7 e1       	ldi	r30, 0x17	; 23
    16d2:	f1 e0       	ldi	r31, 0x01	; 1
    16d4:	de 01       	movw	r26, r28
    16d6:	50 96       	adiw	r26, 0x10	; 16
    16d8:	01 90       	ld	r0, Z+
    16da:	0d 92       	st	X+, r0
    16dc:	8a 95       	dec	r24
    16de:	e1 f7       	brne	.-8      	; 0x16d8 <tft144_init_lcd+0x34>
    16e0:	88 e0       	ldi	r24, 0x08	; 8
    16e2:	8f 8f       	std	Y+31, r24	; 0x1f
    16e4:	88 a3       	std	Y+32, r24	; 0x20
    16e6:	8a e0       	ldi	r24, 0x0A	; 10
    16e8:	89 a3       	std	Y+33, r24	; 0x21
    16ea:	82 e0       	ldi	r24, 0x02	; 2
    16ec:	8a a3       	std	Y+34, r24	; 0x22
    16ee:	80 e5       	ldi	r24, 0x50	; 80
    16f0:	8b a3       	std	Y+35, r24	; 0x23
    16f2:	8b e5       	ldi	r24, 0x5B	; 91
    16f4:	8c a3       	std	Y+36, r24	; 0x24
    16f6:	54 df       	rcall	.-344    	; 0x15a0 <tft144_reset>
    16f8:	81 e1       	ldi	r24, 0x11	; 17
    16fa:	61 df       	rcall	.-318    	; 0x15be <tft144_write_command>
    16fc:	83 ed       	ldi	r24, 0xD3	; 211
    16fe:	90 e3       	ldi	r25, 0x30	; 48
    1700:	01 97       	sbiw	r24, 0x01	; 1
    1702:	f1 f7       	brne	.-4      	; 0x1700 <tft144_init_lcd+0x5c>
    1704:	00 c0       	rjmp	.+0      	; 0x1706 <tft144_init_lcd+0x62>
    1706:	00 00       	nop
    1708:	8a e3       	ldi	r24, 0x3A	; 58
    170a:	59 df       	rcall	.-334    	; 0x15be <tft144_write_command>
    170c:	41 e0       	ldi	r20, 0x01	; 1
    170e:	65 e0       	ldi	r22, 0x05	; 5
    1710:	80 e0       	ldi	r24, 0x00	; 0
    1712:	90 e0       	ldi	r25, 0x00	; 0
    1714:	57 df       	rcall	.-338    	; 0x15c4 <tft144_write_data>
    1716:	86 e2       	ldi	r24, 0x26	; 38
    1718:	52 df       	rcall	.-348    	; 0x15be <tft144_write_command>
    171a:	41 e0       	ldi	r20, 0x01	; 1
    171c:	64 e0       	ldi	r22, 0x04	; 4
    171e:	80 e0       	ldi	r24, 0x00	; 0
    1720:	90 e0       	ldi	r25, 0x00	; 0
    1722:	50 df       	rcall	.-352    	; 0x15c4 <tft144_write_data>
    1724:	82 ef       	ldi	r24, 0xF2	; 242
    1726:	4b df       	rcall	.-362    	; 0x15be <tft144_write_command>
    1728:	41 e0       	ldi	r20, 0x01	; 1
    172a:	61 e0       	ldi	r22, 0x01	; 1
    172c:	80 e0       	ldi	r24, 0x00	; 0
    172e:	90 e0       	ldi	r25, 0x00	; 0
    1730:	49 df       	rcall	.-366    	; 0x15c4 <tft144_write_data>
    1732:	80 ee       	ldi	r24, 0xE0	; 224
    1734:	44 df       	rcall	.-376    	; 0x15be <tft144_write_command>
    1736:	4f e0       	ldi	r20, 0x0F	; 15
    1738:	60 e0       	ldi	r22, 0x00	; 0
    173a:	ce 01       	movw	r24, r28
    173c:	01 96       	adiw	r24, 0x01	; 1
    173e:	42 df       	rcall	.-380    	; 0x15c4 <tft144_write_data>
    1740:	81 ee       	ldi	r24, 0xE1	; 225
    1742:	3d df       	rcall	.-390    	; 0x15be <tft144_write_command>
    1744:	4f e0       	ldi	r20, 0x0F	; 15
    1746:	60 e0       	ldi	r22, 0x00	; 0
    1748:	ce 01       	movw	r24, r28
    174a:	40 96       	adiw	r24, 0x10	; 16
    174c:	3b df       	rcall	.-394    	; 0x15c4 <tft144_write_data>
    174e:	81 eb       	ldi	r24, 0xB1	; 177
    1750:	36 df       	rcall	.-404    	; 0x15be <tft144_write_command>
    1752:	42 e0       	ldi	r20, 0x02	; 2
    1754:	60 e0       	ldi	r22, 0x00	; 0
    1756:	ce 01       	movw	r24, r28
    1758:	4f 96       	adiw	r24, 0x1f	; 31
    175a:	34 df       	rcall	.-408    	; 0x15c4 <tft144_write_data>
    175c:	84 eb       	ldi	r24, 0xB4	; 180
    175e:	2f df       	rcall	.-418    	; 0x15be <tft144_write_command>
    1760:	41 e0       	ldi	r20, 0x01	; 1
    1762:	61 e0       	ldi	r22, 0x01	; 1
    1764:	80 e0       	ldi	r24, 0x00	; 0
    1766:	90 e0       	ldi	r25, 0x00	; 0
    1768:	2d df       	rcall	.-422    	; 0x15c4 <tft144_write_data>
    176a:	80 ec       	ldi	r24, 0xC0	; 192
    176c:	28 df       	rcall	.-432    	; 0x15be <tft144_write_command>
    176e:	42 e0       	ldi	r20, 0x02	; 2
    1770:	60 e0       	ldi	r22, 0x00	; 0
    1772:	ce 01       	movw	r24, r28
    1774:	81 96       	adiw	r24, 0x21	; 33
    1776:	26 df       	rcall	.-436    	; 0x15c4 <tft144_write_data>
    1778:	81 ec       	ldi	r24, 0xC1	; 193
    177a:	21 df       	rcall	.-446    	; 0x15be <tft144_write_command>
    177c:	41 e0       	ldi	r20, 0x01	; 1
    177e:	62 e0       	ldi	r22, 0x02	; 2
    1780:	80 e0       	ldi	r24, 0x00	; 0
    1782:	90 e0       	ldi	r25, 0x00	; 0
    1784:	1f df       	rcall	.-450    	; 0x15c4 <tft144_write_data>
    1786:	85 ec       	ldi	r24, 0xC5	; 197
    1788:	1a df       	rcall	.-460    	; 0x15be <tft144_write_command>
    178a:	42 e0       	ldi	r20, 0x02	; 2
    178c:	60 e0       	ldi	r22, 0x00	; 0
    178e:	ce 01       	movw	r24, r28
    1790:	83 96       	adiw	r24, 0x23	; 35
    1792:	18 df       	rcall	.-464    	; 0x15c4 <tft144_write_data>
    1794:	87 ec       	ldi	r24, 0xC7	; 199
    1796:	13 df       	rcall	.-474    	; 0x15be <tft144_write_command>
    1798:	41 e0       	ldi	r20, 0x01	; 1
    179a:	60 e4       	ldi	r22, 0x40	; 64
    179c:	80 e0       	ldi	r24, 0x00	; 0
    179e:	90 e0       	ldi	r25, 0x00	; 0
    17a0:	11 df       	rcall	.-478    	; 0x15c4 <tft144_write_data>
    17a2:	2f e7       	ldi	r18, 0x7F	; 127
    17a4:	40 e0       	ldi	r20, 0x00	; 0
    17a6:	6f e7       	ldi	r22, 0x7F	; 127
    17a8:	80 e0       	ldi	r24, 0x00	; 0
    17aa:	28 df       	rcall	.-432    	; 0x15fc <tft144_set_frame>
    17ac:	86 e3       	ldi	r24, 0x36	; 54
    17ae:	07 df       	rcall	.-498    	; 0x15be <tft144_write_command>
    17b0:	41 e0       	ldi	r20, 0x01	; 1
    17b2:	61 2f       	mov	r22, r17
    17b4:	80 e0       	ldi	r24, 0x00	; 0
    17b6:	90 e0       	ldi	r25, 0x00	; 0
    17b8:	05 df       	rcall	.-502    	; 0x15c4 <tft144_write_data>
    17ba:	80 e0       	ldi	r24, 0x00	; 0
    17bc:	90 e0       	ldi	r25, 0x00	; 0
    17be:	57 df       	rcall	.-338    	; 0x166e <tft144_clear_display>
    17c0:	89 e2       	ldi	r24, 0x29	; 41
    17c2:	fd de       	rcall	.-518    	; 0x15be <tft144_write_command>
    17c4:	a4 96       	adiw	r28, 0x24	; 36
    17c6:	0f b6       	in	r0, 0x3f	; 63
    17c8:	f8 94       	cli
    17ca:	de bf       	out	0x3e, r29	; 62
    17cc:	0f be       	out	0x3f, r0	; 63
    17ce:	cd bf       	out	0x3d, r28	; 61
    17d0:	df 91       	pop	r29
    17d2:	cf 91       	pop	r28
    17d4:	1f 91       	pop	r17
    17d6:	08 95       	ret

000017d8 <tft144_init>:
    17d8:	80 e5       	ldi	r24, 0x50	; 80
    17da:	8c bd       	out	0x2c, r24	; 44
    17dc:	81 e0       	ldi	r24, 0x01	; 1
    17de:	8d bd       	out	0x2d, r24	; 45
    17e0:	84 b1       	in	r24, 0x04	; 4
    17e2:	8f 60       	ori	r24, 0x0F	; 15
    17e4:	84 b9       	out	0x04, r24	; 4
    17e6:	85 b1       	in	r24, 0x05	; 5
    17e8:	86 60       	ori	r24, 0x06	; 6
    17ea:	85 b9       	out	0x05, r24	; 5
    17ec:	81 e0       	ldi	r24, 0x01	; 1
    17ee:	d2 de       	rcall	.-604    	; 0x1594 <tft144_ledon>
    17f0:	2f e9       	ldi	r18, 0x9F	; 159
    17f2:	86 e8       	ldi	r24, 0x86	; 134
    17f4:	91 e0       	ldi	r25, 0x01	; 1
    17f6:	21 50       	subi	r18, 0x01	; 1
    17f8:	80 40       	sbci	r24, 0x00	; 0
    17fa:	90 40       	sbci	r25, 0x00	; 0
    17fc:	e1 f7       	brne	.-8      	; 0x17f6 <tft144_init+0x1e>
    17fe:	00 c0       	rjmp	.+0      	; 0x1800 <tft144_init+0x28>
    1800:	00 00       	nop
    1802:	80 e0       	ldi	r24, 0x00	; 0
    1804:	4f cf       	rjmp	.-354    	; 0x16a4 <tft144_init_lcd>
    1806:	08 95       	ret

00001808 <tft144_draw_dot>:
    1808:	cf 93       	push	r28
    180a:	df 93       	push	r29
    180c:	96 2f       	mov	r25, r22
    180e:	c4 2f       	mov	r28, r20
    1810:	d5 2f       	mov	r29, r21
    1812:	21 e0       	ldi	r18, 0x01	; 1
    1814:	26 0f       	add	r18, r22
    1816:	61 e0       	ldi	r22, 0x01	; 1
    1818:	68 0f       	add	r22, r24
    181a:	49 2f       	mov	r20, r25
    181c:	ef de       	rcall	.-546    	; 0x15fc <tft144_set_frame>
    181e:	8c e2       	ldi	r24, 0x2C	; 44
    1820:	ce de       	rcall	.-612    	; 0x15be <tft144_write_command>
    1822:	2a 9a       	sbi	0x05, 2	; 5
    1824:	8d 2f       	mov	r24, r29
    1826:	af de       	rcall	.-674    	; 0x1586 <spi_write>
    1828:	8c 2f       	mov	r24, r28
    182a:	ad de       	rcall	.-678    	; 0x1586 <spi_write>
    182c:	df 91       	pop	r29
    182e:	cf 91       	pop	r28
    1830:	08 95       	ret

00001832 <tft144_draw_line>:
    1832:	6f 92       	push	r6
    1834:	7f 92       	push	r7
    1836:	8f 92       	push	r8
    1838:	9f 92       	push	r9
    183a:	af 92       	push	r10
    183c:	bf 92       	push	r11
    183e:	cf 92       	push	r12
    1840:	df 92       	push	r13
    1842:	ef 92       	push	r14
    1844:	ff 92       	push	r15
    1846:	0f 93       	push	r16
    1848:	1f 93       	push	r17
    184a:	cf 93       	push	r28
    184c:	df 93       	push	r29
    184e:	d8 2f       	mov	r29, r24
    1850:	c6 2f       	mov	r28, r22
    1852:	64 2e       	mov	r6, r20
    1854:	72 2e       	mov	r7, r18
    1856:	a2 2e       	mov	r10, r18
    1858:	b1 2c       	mov	r11, r1
    185a:	a6 1a       	sub	r10, r22
    185c:	b1 08       	sbc	r11, r1
    185e:	c4 2e       	mov	r12, r20
    1860:	d1 2c       	mov	r13, r1
    1862:	c8 1a       	sub	r12, r24
    1864:	d1 08       	sbc	r13, r1
    1866:	bb 20       	and	r11, r11
    1868:	34 f4       	brge	.+12     	; 0x1876 <tft144_draw_line+0x44>
    186a:	b1 94       	neg	r11
    186c:	a1 94       	neg	r10
    186e:	b1 08       	sbc	r11, r1
    1870:	99 24       	eor	r9, r9
    1872:	9a 94       	dec	r9
    1874:	02 c0       	rjmp	.+4      	; 0x187a <tft144_draw_line+0x48>
    1876:	99 24       	eor	r9, r9
    1878:	93 94       	inc	r9
    187a:	dd 20       	and	r13, r13
    187c:	34 f4       	brge	.+12     	; 0x188a <tft144_draw_line+0x58>
    187e:	d1 94       	neg	r13
    1880:	c1 94       	neg	r12
    1882:	d1 08       	sbc	r13, r1
    1884:	88 24       	eor	r8, r8
    1886:	8a 94       	dec	r8
    1888:	02 c0       	rjmp	.+4      	; 0x188e <tft144_draw_line+0x5c>
    188a:	88 24       	eor	r8, r8
    188c:	83 94       	inc	r8
    188e:	cc 0c       	add	r12, r12
    1890:	dd 1c       	adc	r13, r13
    1892:	aa 0c       	add	r10, r10
    1894:	bb 1c       	adc	r11, r11
    1896:	a8 01       	movw	r20, r16
    1898:	6c 2f       	mov	r22, r28
    189a:	8d 2f       	mov	r24, r29
    189c:	b5 df       	rcall	.-150    	; 0x1808 <tft144_draw_dot>
    189e:	ac 14       	cp	r10, r12
    18a0:	bd 04       	cpc	r11, r13
    18a2:	bc f4       	brge	.+46     	; 0x18d2 <tft144_draw_line+0xa0>
    18a4:	c6 01       	movw	r24, r12
    18a6:	95 95       	asr	r25
    18a8:	87 95       	ror	r24
    18aa:	75 01       	movw	r14, r10
    18ac:	e8 1a       	sub	r14, r24
    18ae:	f9 0a       	sbc	r15, r25
    18b0:	6d 16       	cp	r6, r29
    18b2:	29 f1       	breq	.+74     	; 0x18fe <tft144_draw_line+0xcc>
    18b4:	ff 20       	and	r15, r15
    18b6:	1c f0       	brlt	.+6      	; 0x18be <tft144_draw_line+0x8c>
    18b8:	c9 0d       	add	r28, r9
    18ba:	ec 18       	sub	r14, r12
    18bc:	fd 08       	sbc	r15, r13
    18be:	d8 0d       	add	r29, r8
    18c0:	ea 0c       	add	r14, r10
    18c2:	fb 1c       	adc	r15, r11
    18c4:	a8 01       	movw	r20, r16
    18c6:	6c 2f       	mov	r22, r28
    18c8:	8d 2f       	mov	r24, r29
    18ca:	9e df       	rcall	.-196    	; 0x1808 <tft144_draw_dot>
    18cc:	d6 11       	cpse	r29, r6
    18ce:	f2 cf       	rjmp	.-28     	; 0x18b4 <tft144_draw_line+0x82>
    18d0:	16 c0       	rjmp	.+44     	; 0x18fe <tft144_draw_line+0xcc>
    18d2:	c5 01       	movw	r24, r10
    18d4:	95 95       	asr	r25
    18d6:	87 95       	ror	r24
    18d8:	76 01       	movw	r14, r12
    18da:	e8 1a       	sub	r14, r24
    18dc:	f9 0a       	sbc	r15, r25
    18de:	7c 16       	cp	r7, r28
    18e0:	71 f0       	breq	.+28     	; 0x18fe <tft144_draw_line+0xcc>
    18e2:	ff 20       	and	r15, r15
    18e4:	1c f0       	brlt	.+6      	; 0x18ec <tft144_draw_line+0xba>
    18e6:	d8 0d       	add	r29, r8
    18e8:	ea 18       	sub	r14, r10
    18ea:	fb 08       	sbc	r15, r11
    18ec:	c9 0d       	add	r28, r9
    18ee:	ec 0c       	add	r14, r12
    18f0:	fd 1c       	adc	r15, r13
    18f2:	a8 01       	movw	r20, r16
    18f4:	6c 2f       	mov	r22, r28
    18f6:	8d 2f       	mov	r24, r29
    18f8:	87 df       	rcall	.-242    	; 0x1808 <tft144_draw_dot>
    18fa:	c7 11       	cpse	r28, r7
    18fc:	f2 cf       	rjmp	.-28     	; 0x18e2 <tft144_draw_line+0xb0>
    18fe:	df 91       	pop	r29
    1900:	cf 91       	pop	r28
    1902:	1f 91       	pop	r17
    1904:	0f 91       	pop	r16
    1906:	ff 90       	pop	r15
    1908:	ef 90       	pop	r14
    190a:	df 90       	pop	r13
    190c:	cf 90       	pop	r12
    190e:	bf 90       	pop	r11
    1910:	af 90       	pop	r10
    1912:	9f 90       	pop	r9
    1914:	8f 90       	pop	r8
    1916:	7f 90       	pop	r7
    1918:	6f 90       	pop	r6
    191a:	08 95       	ret

0000191c <tft144_draw_circle>:

void tft144_draw_circle(uint8_t x0, uint8_t y0, uint8_t radio, colour color) {
    191c:	2f 92       	push	r2
    191e:	3f 92       	push	r3
    1920:	4f 92       	push	r4
    1922:	5f 92       	push	r5
    1924:	6f 92       	push	r6
    1926:	7f 92       	push	r7
    1928:	8f 92       	push	r8
    192a:	9f 92       	push	r9
    192c:	af 92       	push	r10
    192e:	bf 92       	push	r11
    1930:	cf 92       	push	r12
    1932:	df 92       	push	r13
    1934:	ef 92       	push	r14
    1936:	ff 92       	push	r15
    1938:	0f 93       	push	r16
    193a:	1f 93       	push	r17
    193c:	cf 93       	push	r28
    193e:	df 93       	push	r29
    1940:	00 d0       	rcall	.+0      	; 0x1942 <tft144_draw_circle+0x26>
    1942:	00 d0       	rcall	.+0      	; 0x1944 <tft144_draw_circle+0x28>
    1944:	cd b7       	in	r28, 0x3d	; 61
    1946:	de b7       	in	r29, 0x3e	; 62
    1948:	38 2e       	mov	r3, r24
    194a:	26 2e       	mov	r2, r22
    194c:	d4 2e       	mov	r13, r20
    194e:	3c 83       	std	Y+4, r19	; 0x04
    1950:	2b 83       	std	Y+3, r18	; 0x03
	int16_t error, errorx, errory, y, x;

	error = 1 - radio;
    1952:	04 2f       	mov	r16, r20
    1954:	10 e0       	ldi	r17, 0x00	; 0
    1956:	81 e0       	ldi	r24, 0x01	; 1
    1958:	90 e0       	ldi	r25, 0x00	; 0
    195a:	7c 01       	movw	r14, r24
    195c:	e0 1a       	sub	r14, r16
    195e:	f1 0a       	sbc	r15, r17
	errorx = 1;
	errory = -2 * radio;
    1960:	aa 24       	eor	r10, r10
    1962:	bb 24       	eor	r11, r11
    1964:	a0 1a       	sub	r10, r16
    1966:	b1 0a       	sbc	r11, r17
    1968:	aa 0c       	add	r10, r10
    196a:	bb 1c       	adc	r11, r11
	y = radio;
	x = 0;
	tft144_draw_dot(x0, y0 + radio, color);
    196c:	64 2f       	mov	r22, r20
    196e:	62 0d       	add	r22, r2
    1970:	a9 01       	movw	r20, r18
    1972:	83 2d       	mov	r24, r3
    1974:	49 df       	rcall	.-366    	; 0x1808 <tft144_draw_dot>
	tft144_draw_dot(x0, y0 - radio, color);
    1976:	62 2d       	mov	r22, r2
    1978:	6d 19       	sub	r22, r13
    197a:	4b 81       	ldd	r20, Y+3	; 0x03
    197c:	5c 81       	ldd	r21, Y+4	; 0x04
    197e:	83 2d       	mov	r24, r3
    1980:	43 df       	rcall	.-378    	; 0x1808 <tft144_draw_dot>
	tft144_draw_dot(x0 + radio, y0, color);
    1982:	4b 81       	ldd	r20, Y+3	; 0x03
    1984:	5c 81       	ldd	r21, Y+4	; 0x04
    1986:	62 2d       	mov	r22, r2
    1988:	8d 2d       	mov	r24, r13
    198a:	83 0d       	add	r24, r3
    198c:	3d df       	rcall	.-390    	; 0x1808 <tft144_draw_dot>
	tft144_draw_dot(x0 - radio, y0, color);
    198e:	4b 81       	ldd	r20, Y+3	; 0x03
    1990:	5c 81       	ldd	r21, Y+4	; 0x04
    1992:	62 2d       	mov	r22, r2
    1994:	83 2d       	mov	r24, r3
    1996:	8d 19       	sub	r24, r13
    1998:	37 df       	rcall	.-402    	; 0x1808 <tft144_draw_dot>
	while (x < y) {
    199a:	10 16       	cp	r1, r16
    199c:	11 06       	cpc	r1, r17
    199e:	0c f0       	brlt	.+2      	; 0x19a2 <tft144_draw_circle+0x86>
    19a0:	58 c0       	rjmp	.+176    	; 0x1a52 <tft144_draw_circle+0x136>
    19a2:	77 24       	eor	r7, r7
    19a4:	73 94       	inc	r7
    19a6:	73 0c       	add	r7, r3
    19a8:	44 24       	eor	r4, r4
    19aa:	4a 94       	dec	r4
    19ac:	43 0c       	add	r4, r3
    19ae:	81 2c       	mov	r8, r1
    19b0:	91 2c       	mov	r9, r1
    19b2:	cc 24       	eor	r12, r12
    19b4:	c3 94       	inc	r12
    19b6:	d1 2c       	mov	r13, r1
    19b8:	52 2c       	mov	r5, r2
    19ba:	53 18       	sub	r5, r3
		if (error >= 0) {
    19bc:	ff 20       	and	r15, r15
    19be:	3c f0       	brlt	.+14     	; 0x19ce <tft144_draw_circle+0xb2>
			y -= 1;
    19c0:	01 50       	subi	r16, 0x01	; 1
    19c2:	11 09       	sbc	r17, r1
			errory += 2;
    19c4:	82 e0       	ldi	r24, 0x02	; 2
    19c6:	a8 0e       	add	r10, r24
    19c8:	b1 1c       	adc	r11, r1
			error += errory;
    19ca:	ea 0c       	add	r14, r10
    19cc:	fb 1c       	adc	r15, r11
		}
		x += 1;
    19ce:	8f ef       	ldi	r24, 0xFF	; 255
    19d0:	88 1a       	sub	r8, r24
    19d2:	98 0a       	sbc	r9, r24
		errorx += 2;
    19d4:	82 e0       	ldi	r24, 0x02	; 2
    19d6:	c8 0e       	add	r12, r24
    19d8:	d1 1c       	adc	r13, r1
		error += errorx;
    19da:	ec 0c       	add	r14, r12
    19dc:	fd 1c       	adc	r15, r13
		tft144_draw_dot(x0 + x, y0 + y, color);
    19de:	4b 81       	ldd	r20, Y+3	; 0x03
    19e0:	5c 81       	ldd	r21, Y+4	; 0x04
    19e2:	62 2c       	mov	r6, r2
    19e4:	60 0e       	add	r6, r16
    19e6:	66 2d       	mov	r22, r6
    19e8:	87 2d       	mov	r24, r7
    19ea:	0e df       	rcall	.-484    	; 0x1808 <tft144_draw_dot>
		tft144_draw_dot(x0 - x, y0 + y, color);
    19ec:	4b 81       	ldd	r20, Y+3	; 0x03
    19ee:	5c 81       	ldd	r21, Y+4	; 0x04
    19f0:	66 2d       	mov	r22, r6
    19f2:	84 2d       	mov	r24, r4
    19f4:	09 df       	rcall	.-494    	; 0x1808 <tft144_draw_dot>
    19f6:	4b 81       	ldd	r20, Y+3	; 0x03
		tft144_draw_dot(x0 + x, y0 - y, color);
    19f8:	5c 81       	ldd	r21, Y+4	; 0x04
    19fa:	62 2c       	mov	r6, r2
    19fc:	60 1a       	sub	r6, r16
    19fe:	66 2d       	mov	r22, r6
    1a00:	87 2d       	mov	r24, r7
    1a02:	02 df       	rcall	.-508    	; 0x1808 <tft144_draw_dot>
		tft144_draw_dot(x0 - x, y0 - y, color);
    1a04:	4b 81       	ldd	r20, Y+3	; 0x03
    1a06:	5c 81       	ldd	r21, Y+4	; 0x04
    1a08:	66 2d       	mov	r22, r6
    1a0a:	84 2d       	mov	r24, r4
    1a0c:	fd de       	rcall	.-518    	; 0x1808 <tft144_draw_dot>
    1a0e:	67 2c       	mov	r6, r7
    1a10:	65 0c       	add	r6, r5
		tft144_draw_dot(x0 + y, y0 + x, color);
    1a12:	4b 81       	ldd	r20, Y+3	; 0x03
    1a14:	5c 81       	ldd	r21, Y+4	; 0x04
    1a16:	66 2d       	mov	r22, r6
    1a18:	83 2d       	mov	r24, r3
    1a1a:	80 0f       	add	r24, r16
    1a1c:	89 83       	std	Y+1, r24	; 0x01
    1a1e:	f4 de       	rcall	.-536    	; 0x1808 <tft144_draw_dot>
		tft144_draw_dot(x0 - y, y0 + x, color);
    1a20:	4b 81       	ldd	r20, Y+3	; 0x03
    1a22:	5c 81       	ldd	r21, Y+4	; 0x04
    1a24:	66 2d       	mov	r22, r6
    1a26:	83 2d       	mov	r24, r3
    1a28:	80 1b       	sub	r24, r16
    1a2a:	8a 83       	std	Y+2, r24	; 0x02
    1a2c:	ed de       	rcall	.-550    	; 0x1808 <tft144_draw_dot>
    1a2e:	64 2c       	mov	r6, r4
    1a30:	65 0c       	add	r6, r5
		tft144_draw_dot(x0 + y, y0 - x, color);
    1a32:	4b 81       	ldd	r20, Y+3	; 0x03
    1a34:	5c 81       	ldd	r21, Y+4	; 0x04
    1a36:	66 2d       	mov	r22, r6
    1a38:	89 81       	ldd	r24, Y+1	; 0x01
    1a3a:	e6 de       	rcall	.-564    	; 0x1808 <tft144_draw_dot>
    1a3c:	4b 81       	ldd	r20, Y+3	; 0x03
		tft144_draw_dot(x0 - y, y0 - x, color);
    1a3e:	5c 81       	ldd	r21, Y+4	; 0x04
    1a40:	66 2d       	mov	r22, r6
    1a42:	8a 81       	ldd	r24, Y+2	; 0x02
    1a44:	e1 de       	rcall	.-574    	; 0x1808 <tft144_draw_dot>
    1a46:	73 94       	inc	r7
    1a48:	4a 94       	dec	r4
    1a4a:	80 16       	cp	r8, r16
    1a4c:	91 06       	cpc	r9, r17
	x = 0;
	tft144_draw_dot(x0, y0 + radio, color);
	tft144_draw_dot(x0, y0 - radio, color);
	tft144_draw_dot(x0 + radio, y0, color);
	tft144_draw_dot(x0 - radio, y0, color);
	while (x < y) {
    1a4e:	0c f4       	brge	.+2      	; 0x1a52 <tft144_draw_circle+0x136>
    1a50:	b5 cf       	rjmp	.-150    	; 0x19bc <tft144_draw_circle+0xa0>
    1a52:	0f 90       	pop	r0
    1a54:	0f 90       	pop	r0
		tft144_draw_dot(x0 + y, y0 + x, color);
		tft144_draw_dot(x0 - y, y0 + x, color);
		tft144_draw_dot(x0 + y, y0 - x, color);
		tft144_draw_dot(x0 - y, y0 - x, color);
	}
}
    1a56:	0f 90       	pop	r0
    1a58:	0f 90       	pop	r0
    1a5a:	df 91       	pop	r29
    1a5c:	cf 91       	pop	r28
    1a5e:	1f 91       	pop	r17
    1a60:	0f 91       	pop	r16
    1a62:	ff 90       	pop	r15
    1a64:	ef 90       	pop	r14
    1a66:	df 90       	pop	r13
    1a68:	cf 90       	pop	r12
    1a6a:	bf 90       	pop	r11
    1a6c:	af 90       	pop	r10
    1a6e:	9f 90       	pop	r9
    1a70:	8f 90       	pop	r8
    1a72:	7f 90       	pop	r7
    1a74:	6f 90       	pop	r6
    1a76:	5f 90       	pop	r5
    1a78:	4f 90       	pop	r4
    1a7a:	3f 90       	pop	r3
    1a7c:	2f 90       	pop	r2
    1a7e:	08 95       	ret

00001a80 <tft144_putchar>:
    1a80:	2f 92       	push	r2
    1a82:	3f 92       	push	r3

/* this function seems a little bit slow(for it's random dot filling technique) but i found its really effective
   when you have no background color! and write your character on your picture!
   it returns the width printed (useful when your font is too heavy with spaces!) */
uint8_t tft144_putchar(char c, uint8_t x, uint8_t y, colour fgcolor, colour bgcolor, uint8_t font, uint8_t w, uint8_t h, uint8_t offset) {
    1a84:	4f 92       	push	r4
    1a86:	5f 92       	push	r5
    1a88:	6f 92       	push	r6
    1a8a:	7f 92       	push	r7
    1a8c:	8f 92       	push	r8
    1a8e:	9f 92       	push	r9
    1a90:	af 92       	push	r10
    1a92:	bf 92       	push	r11
    1a94:	cf 92       	push	r12
    1a96:	df 92       	push	r13
    1a98:	ef 92       	push	r14
    1a9a:	ff 92       	push	r15
    1a9c:	0f 93       	push	r16
    1a9e:	1f 93       	push	r17
    1aa0:	cf 93       	push	r28
    1aa2:	df 93       	push	r29
    1aa4:	cd b7       	in	r28, 0x3d	; 61
    1aa6:	de b7       	in	r29, 0x3e	; 62
    1aa8:	27 97       	sbiw	r28, 0x07	; 7
    1aaa:	0f b6       	in	r0, 0x3f	; 63
    1aac:	f8 94       	cli
    1aae:	de bf       	out	0x3e, r29	; 62
    1ab0:	0f be       	out	0x3f, r0	; 63
    1ab2:	cd bf       	out	0x3d, r28	; 61
	uint8_t i, j, o, k, fcs, tmp_char, cw=0;

	k = (((h-1)/8)+1);
    1ab4:	ea 2d       	mov	r30, r10
    1ab6:	f0 e0       	ldi	r31, 0x00	; 0
    1ab8:	31 97       	sbiw	r30, 0x01	; 1
    1aba:	df 01       	movw	r26, r30
    1abc:	0a f4       	brpl	.+2      	; 0x1ac0 <tft144_putchar+0x40>
    1abe:	17 96       	adiw	r26, 0x07	; 7
    1ac0:	b5 95       	asr	r27
    1ac2:	a7 95       	ror	r26
    1ac4:	b5 95       	asr	r27
    1ac6:	a7 95       	ror	r26
    1ac8:	b5 95       	asr	r27
    1aca:	a7 95       	ror	r26
    1acc:	aa 24       	eor	r10, r10
    1ace:	a3 94       	inc	r10
    1ad0:	aa 0e       	add	r10, r26
	fcs = k*w; // font character size
    1ad2:	ac 9c       	mul	r10, r12
    1ad4:	20 2c       	mov	r2, r0
    1ad6:	11 24       	eor	r1, r1
	for(i=0;i<fcs;i+=k)
    1ad8:	22 20       	and	r2, r2
    1ada:	09 f4       	brne	.+2      	; 0x1ade <tft144_putchar+0x5e>
    1adc:	5a c0       	rjmp	.+180    	; 0x1b92 <tft144_putchar+0x112>
    1ade:	3a 83       	std	Y+2, r19	; 0x02
    1ae0:	29 83       	std	Y+1, r18	; 0x01
    1ae2:	4f 83       	std	Y+7, r20	; 0x07
    1ae4:	36 2e       	mov	r3, r22
		for(o=0;o<k;o++) {
			tmp_char=pgm_read_byte(pgm_read_word(&fontlib[font])+6+((((c-offset)*fcs)+i+o)*2));
    1ae6:	90 e0       	ldi	r25, 0x00	; 0
    1ae8:	88 19       	sub	r24, r8
    1aea:	91 09       	sbc	r25, r1
    1aec:	28 9e       	mul	r2, r24
    1aee:	90 01       	movw	r18, r0
    1af0:	29 9e       	mul	r2, r25
    1af2:	30 0d       	add	r19, r0
    1af4:	11 24       	eor	r1, r1
    1af6:	3e 83       	std	Y+6, r19	; 0x06
    1af8:	2d 83       	std	Y+5, r18	; 0x05
    1afa:	41 2c       	mov	r4, r1
    1afc:	71 2c       	mov	r7, r1
    1afe:	8e 2d       	mov	r24, r14
    1b00:	90 e0       	ldi	r25, 0x00	; 0
    1b02:	88 0f       	add	r24, r24
    1b04:	99 1f       	adc	r25, r25
    1b06:	9c 01       	movw	r18, r24
    1b08:	24 57       	subi	r18, 0x74	; 116
    1b0a:	3f 4f       	sbci	r19, 0xFF	; 255
    1b0c:	3c 83       	std	Y+4, r19	; 0x04
    1b0e:	2b 83       	std	Y+3, r18	; 0x03
    1b10:	35 c0       	rjmp	.+106    	; 0x1b7c <tft144_putchar+0xfc>
    1b12:	eb 81       	ldd	r30, Y+3	; 0x03
    1b14:	fc 81       	ldd	r31, Y+4	; 0x04
    1b16:	c5 90       	lpm	r12, Z+
    1b18:	d4 90       	lpm	r13, Z
    1b1a:	36 e0       	ldi	r19, 0x06	; 6
    1b1c:	c3 0e       	add	r12, r19
    1b1e:	d1 1c       	adc	r13, r1
    1b20:	f6 01       	movw	r30, r12
    1b22:	e8 0d       	add	r30, r8
    1b24:	f9 1d       	adc	r31, r9
    1b26:	c4 90       	lpm	r12, Z
    1b28:	f5 2c       	mov	r15, r5
    1b2a:	00 e0       	ldi	r16, 0x00	; 0
    1b2c:	10 e0       	ldi	r17, 0x00	; 0
			for(j=0;j<8;j++)
				if((tmp_char >> j)&1) {
    1b2e:	d1 2c       	mov	r13, r1
    1b30:	c6 01       	movw	r24, r12
    1b32:	00 2e       	mov	r0, r16
    1b34:	02 c0       	rjmp	.+4      	; 0x1b3a <tft144_putchar+0xba>
    1b36:	95 95       	asr	r25
    1b38:	87 95       	ror	r24
    1b3a:	0a 94       	dec	r0
    1b3c:	e2 f7       	brpl	.-8      	; 0x1b36 <tft144_putchar+0xb6>
    1b3e:	80 ff       	sbrs	r24, 0
    1b40:	0c c0       	rjmp	.+24     	; 0x1b5a <tft144_putchar+0xda>
					tft144_draw_dot(x+(i/k), y+j+(o*8),fgcolor);
    1b42:	84 2d       	mov	r24, r4
    1b44:	6a 2d       	mov	r22, r10
    1b46:	f4 d0       	rcall	.+488    	; 0x1d30 <__udivmodqi4>
    1b48:	e8 2e       	mov	r14, r24
    1b4a:	49 81       	ldd	r20, Y+1	; 0x01
    1b4c:	5a 81       	ldd	r21, Y+2	; 0x02
    1b4e:	6f 2d       	mov	r22, r15
    1b50:	83 0d       	add	r24, r3
    1b52:	5a de       	rcall	.-844    	; 0x1808 <tft144_draw_dot>
    1b54:	7e 14       	cp	r7, r14
    1b56:	08 f4       	brcc	.+2      	; 0x1b5a <tft144_putchar+0xda>
    1b58:	7e 2c       	mov	r7, r14
    1b5a:	0f 5f       	subi	r16, 0xFF	; 255
    1b5c:	1f 4f       	sbci	r17, 0xFF	; 255
    1b5e:	f3 94       	inc	r15
	k = (((h-1)/8)+1);
	fcs = k*w; // font character size
	for(i=0;i<fcs;i+=k)
		for(o=0;o<k;o++) {
			tmp_char=pgm_read_byte(pgm_read_word(&fontlib[font])+6+((((c-offset)*fcs)+i+o)*2));
			for(j=0;j<8;j++)
    1b60:	08 30       	cpi	r16, 0x08	; 8
    1b62:	11 05       	cpc	r17, r1
    1b64:	29 f7       	brne	.-54     	; 0x1b30 <tft144_putchar+0xb0>
	uint8_t i, j, o, k, fcs, tmp_char, cw=0;

	k = (((h-1)/8)+1);
	fcs = k*w; // font character size
	for(i=0;i<fcs;i+=k)
		for(o=0;o<k;o++) {
    1b66:	63 94       	inc	r6
    1b68:	82 e0       	ldi	r24, 0x02	; 2
    1b6a:	88 0e       	add	r8, r24
    1b6c:	91 1c       	adc	r9, r1
    1b6e:	28 e0       	ldi	r18, 0x08	; 8
    1b70:	52 0e       	add	r5, r18
    1b72:	6a 14       	cp	r6, r10
    1b74:	70 f2       	brcs	.-100    	; 0x1b12 <tft144_putchar+0x92>
uint8_t tft144_putchar(char c, uint8_t x, uint8_t y, colour fgcolor, colour bgcolor, uint8_t font, uint8_t w, uint8_t h, uint8_t offset) {
	uint8_t i, j, o, k, fcs, tmp_char, cw=0;

	k = (((h-1)/8)+1);
	fcs = k*w; // font character size
	for(i=0;i<fcs;i+=k)
    1b76:	4a 0c       	add	r4, r10
    1b78:	42 14       	cp	r4, r2
    1b7a:	60 f4       	brcc	.+24     	; 0x1b94 <tft144_putchar+0x114>
		for(o=0;o<k;o++) {
    1b7c:	aa 20       	and	r10, r10
    1b7e:	d9 f3       	breq	.-10     	; 0x1b76 <tft144_putchar+0xf6>
    1b80:	8d 80       	ldd	r8, Y+5	; 0x05
    1b82:	9e 80       	ldd	r9, Y+6	; 0x06
    1b84:	84 0c       	add	r8, r4
    1b86:	91 1c       	adc	r9, r1
    1b88:	88 0c       	add	r8, r8
    1b8a:	99 1c       	adc	r9, r9
			tmp_char=pgm_read_byte(pgm_read_word(&fontlib[font])+6+((((c-offset)*fcs)+i+o)*2));
    1b8c:	5f 80       	ldd	r5, Y+7	; 0x07
    1b8e:	61 2c       	mov	r6, r1
    1b90:	c0 cf       	rjmp	.-128    	; 0x1b12 <tft144_putchar+0x92>

/* this function seems a little bit slow(for it's random dot filling technique) but i found its really effective
   when you have no background color! and write your character on your picture!
   it returns the width printed (useful when your font is too heavy with spaces!) */
uint8_t tft144_putchar(char c, uint8_t x, uint8_t y, colour fgcolor, colour bgcolor, uint8_t font, uint8_t w, uint8_t h, uint8_t offset) {
	uint8_t i, j, o, k, fcs, tmp_char, cw=0;
    1b92:	71 2c       	mov	r7, r1
					if((i/k)>cw) cw=(i/k);
				}
		}

	return cw;
}
    1b94:	87 2d       	mov	r24, r7
    1b96:	27 96       	adiw	r28, 0x07	; 7
    1b98:	0f b6       	in	r0, 0x3f	; 63
    1b9a:	f8 94       	cli
    1b9c:	de bf       	out	0x3e, r29	; 62
    1b9e:	0f be       	out	0x3f, r0	; 63
    1ba0:	cd bf       	out	0x3d, r28	; 61
    1ba2:	df 91       	pop	r29
    1ba4:	cf 91       	pop	r28
    1ba6:	1f 91       	pop	r17
    1ba8:	0f 91       	pop	r16
    1baa:	ff 90       	pop	r15
    1bac:	ef 90       	pop	r14
    1bae:	df 90       	pop	r13
    1bb0:	cf 90       	pop	r12
    1bb2:	bf 90       	pop	r11
    1bb4:	af 90       	pop	r10
    1bb6:	9f 90       	pop	r9
    1bb8:	8f 90       	pop	r8
    1bba:	7f 90       	pop	r7
    1bbc:	6f 90       	pop	r6
    1bbe:	5f 90       	pop	r5
    1bc0:	4f 90       	pop	r4
    1bc2:	3f 90       	pop	r3
    1bc4:	2f 90       	pop	r2
    1bc6:	08 95       	ret

00001bc8 <tft144_putstring>:

/* x & y are pointers to global(or local) variables that caller gives.
   the idea behind this is to give the caller a screen, that can write multiple times with just
   one x & y initialization.
   you can see in this function x & y updates after every character process. */
void tft144_putstring(char *str, uint8_t *x, uint8_t *y, colour fgcolor, colour bgcolor, uint8_t font) {
    1bc8:	2f 92       	push	r2
    1bca:	3f 92       	push	r3
    1bcc:	4f 92       	push	r4
    1bce:	5f 92       	push	r5
    1bd0:	6f 92       	push	r6
    1bd2:	7f 92       	push	r7
    1bd4:	8f 92       	push	r8
    1bd6:	9f 92       	push	r9
    1bd8:	af 92       	push	r10
    1bda:	bf 92       	push	r11
    1bdc:	cf 92       	push	r12
    1bde:	df 92       	push	r13
    1be0:	ef 92       	push	r14
    1be2:	ff 92       	push	r15
    1be4:	0f 93       	push	r16
    1be6:	1f 93       	push	r17
    1be8:	cf 93       	push	r28
    1bea:	df 93       	push	r29
    1bec:	cd b7       	in	r28, 0x3d	; 61
    1bee:	de b7       	in	r29, 0x3e	; 62
    1bf0:	28 97       	sbiw	r28, 0x08	; 8
    1bf2:	0f b6       	in	r0, 0x3f	; 63
    1bf4:	f8 94       	cli
    1bf6:	de bf       	out	0x3e, r29	; 62
    1bf8:	0f be       	out	0x3f, r0	; 63
    1bfa:	cd bf       	out	0x3d, r28	; 61
	uint8_t cw,w,h,offset;

	w=pgm_read_byte(pgm_read_word(&fontlib[font]));
    1bfc:	ae 2d       	mov	r26, r14
    1bfe:	b0 e0       	ldi	r27, 0x00	; 0
    1c00:	aa 0f       	add	r26, r26
    1c02:	bb 1f       	adc	r27, r27
    1c04:	a4 57       	subi	r26, 0x74	; 116
    1c06:	bf 4f       	sbci	r27, 0xFF	; 255
    1c08:	fd 01       	movw	r30, r26
    1c0a:	c5 90       	lpm	r12, Z+
    1c0c:	d4 90       	lpm	r13, Z
    1c0e:	f6 01       	movw	r30, r12
    1c10:	94 90       	lpm	r9, Z
	h=pgm_read_byte(pgm_read_word(&fontlib[font])+2);
    1c12:	fd 01       	movw	r30, r26
    1c14:	c5 90       	lpm	r12, Z+
    1c16:	d4 90       	lpm	r13, Z
    1c18:	f6 01       	movw	r30, r12
    1c1a:	32 96       	adiw	r30, 0x02	; 2
    1c1c:	d4 90       	lpm	r13, Z
	offset=pgm_read_byte(pgm_read_word(&fontlib[font])+4);
    1c1e:	fd 01       	movw	r30, r26
    1c20:	a5 91       	lpm	r26, Z+
    1c22:	b4 91       	lpm	r27, Z
    1c24:	fd 01       	movw	r30, r26
    1c26:	34 96       	adiw	r30, 0x04	; 4
    1c28:	b4 90       	lpm	r11, Z
	while (*str) {
    1c2a:	dc 01       	movw	r26, r24
    1c2c:	ec 91       	ld	r30, X
    1c2e:	ee 23       	and	r30, r30
    1c30:	09 f4       	brne	.+2      	; 0x1c34 <tft144_putstring+0x6c>
    1c32:	65 c0       	rjmp	.+202    	; 0x1cfe <tft144_putstring+0x136>
    1c34:	ed 82       	std	Y+5, r14	; 0x05
    1c36:	1c 83       	std	Y+4, r17	; 0x04
    1c38:	0b 83       	std	Y+3, r16	; 0x03
    1c3a:	3a 83       	std	Y+2, r19	; 0x02
    1c3c:	29 83       	std	Y+1, r18	; 0x01
    1c3e:	2a 01       	movw	r4, r20
    1c40:	3b 01       	movw	r6, r22
    1c42:	98 87       	std	Y+8, r25	; 0x08
    1c44:	8f 83       	std	Y+7, r24	; 0x07
		if (*x > (TFTWIDTH - w)) {
    1c46:	80 e8       	ldi	r24, 0x80	; 128
    1c48:	90 e0       	ldi	r25, 0x00	; 0
    1c4a:	1c 01       	movw	r2, r24
    1c4c:	29 18       	sub	r2, r9
    1c4e:	31 08       	sbc	r3, r1
		else if (*str == '\v')
			*x = *y = 0; // start of screen
		else if ((*str >= offset) && (isprint(*str))) {
			cw = tft144_putchar(*str, *x, *y, fgcolor, bgcolor, font, w, h,
					offset);
			*x += (cw ? cw + 2 : w / 2);
    1c50:	b9 2d       	mov	r27, r9
    1c52:	b6 95       	lsr	r27
    1c54:	be 83       	std	Y+6, r27	; 0x06

	w=pgm_read_byte(pgm_read_word(&fontlib[font]));
	h=pgm_read_byte(pgm_read_word(&fontlib[font])+2);
	offset=pgm_read_byte(pgm_read_word(&fontlib[font])+4);
	while (*str) {
		if (*x > (TFTWIDTH - w)) {
    1c56:	f3 01       	movw	r30, r6
    1c58:	80 81       	ld	r24, Z
    1c5a:	90 e0       	ldi	r25, 0x00	; 0
    1c5c:	28 16       	cp	r2, r24
    1c5e:	39 06       	cpc	r3, r25
    1c60:	2c f4       	brge	.+10     	; 0x1c6c <tft144_putstring+0xa4>
			*y += h;
    1c62:	d2 01       	movw	r26, r4
    1c64:	8c 91       	ld	r24, X
    1c66:	8d 0d       	add	r24, r13
    1c68:	8c 93       	st	X, r24
			*x = 0;
    1c6a:	10 82       	st	Z, r1
		} // (end of screen)
		if (*str == '\n') {
    1c6c:	ef 81       	ldd	r30, Y+7	; 0x07
    1c6e:	f8 85       	ldd	r31, Y+8	; 0x08
    1c70:	f1 90       	ld	r15, Z+
    1c72:	f8 87       	std	Y+8, r31	; 0x08
    1c74:	ef 83       	std	Y+7, r30	; 0x07
    1c76:	fa e0       	ldi	r31, 0x0A	; 10
    1c78:	ff 12       	cpse	r15, r31
    1c7a:	07 c0       	rjmp	.+14     	; 0x1c8a <tft144_putstring+0xc2>
			*y += h;
    1c7c:	d2 01       	movw	r26, r4
    1c7e:	8c 91       	ld	r24, X
    1c80:	8d 0d       	add	r24, r13
    1c82:	8c 93       	st	X, r24
			*x = 0;
    1c84:	f3 01       	movw	r30, r6
    1c86:	10 82       	st	Z, r1
    1c88:	35 c0       	rjmp	.+106    	; 0x1cf4 <tft144_putstring+0x12c>
		} // newline
		else if (*str == '\r')
    1c8a:	fd e0       	ldi	r31, 0x0D	; 13
    1c8c:	ff 12       	cpse	r15, r31
    1c8e:	03 c0       	rjmp	.+6      	; 0x1c96 <tft144_putstring+0xce>
			*x = 0; // return
    1c90:	d3 01       	movw	r26, r6
    1c92:	1c 92       	st	X, r1
    1c94:	2f c0       	rjmp	.+94     	; 0x1cf4 <tft144_putstring+0x12c>
		else if (*str == '\b')
    1c96:	b8 e0       	ldi	r27, 0x08	; 8
    1c98:	fb 12       	cpse	r15, r27
    1c9a:	05 c0       	rjmp	.+10     	; 0x1ca6 <tft144_putstring+0xde>
			*x -= w; // backspace
    1c9c:	f3 01       	movw	r30, r6
    1c9e:	80 81       	ld	r24, Z
    1ca0:	89 19       	sub	r24, r9
    1ca2:	80 83       	st	Z, r24
    1ca4:	27 c0       	rjmp	.+78     	; 0x1cf4 <tft144_putstring+0x12c>
		else if (*str == '\v')
    1ca6:	fb e0       	ldi	r31, 0x0B	; 11
    1ca8:	ff 12       	cpse	r15, r31
    1caa:	05 c0       	rjmp	.+10     	; 0x1cb6 <tft144_putstring+0xee>
			*x = *y = 0; // start of screen
    1cac:	d2 01       	movw	r26, r4
    1cae:	1c 92       	st	X, r1
    1cb0:	f3 01       	movw	r30, r6
    1cb2:	10 82       	st	Z, r1
    1cb4:	1f c0       	rjmp	.+62     	; 0x1cf4 <tft144_putstring+0x12c>
		else if ((*str >= offset) && (isprint(*str))) {
    1cb6:	fb 14       	cp	r15, r11
    1cb8:	e8 f0       	brcs	.+58     	; 0x1cf4 <tft144_putstring+0x12c>
    1cba:	8f 2d       	mov	r24, r15
    1cbc:	90 e0       	ldi	r25, 0x00	; 0
    1cbe:	46 d0       	rcall	.+140    	; 0x1d4c <isprint>
    1cc0:	89 2b       	or	r24, r25
    1cc2:	c1 f0       	breq	.+48     	; 0x1cf4 <tft144_putstring+0x12c>
			cw = tft144_putchar(*str, *x, *y, fgcolor, bgcolor, font, w, h,
    1cc4:	8b 2c       	mov	r8, r11
    1cc6:	ad 2c       	mov	r10, r13
    1cc8:	c9 2c       	mov	r12, r9
    1cca:	ed 80       	ldd	r14, Y+5	; 0x05
    1ccc:	0b 81       	ldd	r16, Y+3	; 0x03
    1cce:	1c 81       	ldd	r17, Y+4	; 0x04
    1cd0:	29 81       	ldd	r18, Y+1	; 0x01
    1cd2:	3a 81       	ldd	r19, Y+2	; 0x02
    1cd4:	d2 01       	movw	r26, r4
    1cd6:	4c 91       	ld	r20, X
    1cd8:	f3 01       	movw	r30, r6
    1cda:	60 81       	ld	r22, Z
    1cdc:	8f 2d       	mov	r24, r15
    1cde:	d0 de       	rcall	.-608    	; 0x1a80 <tft144_putchar>
					offset);
			*x += (cw ? cw + 2 : w / 2);
    1ce0:	d3 01       	movw	r26, r6
    1ce2:	9c 91       	ld	r25, X
    1ce4:	88 23       	and	r24, r24
    1ce6:	11 f0       	breq	.+4      	; 0x1cec <tft144_putstring+0x124>
    1ce8:	8e 5f       	subi	r24, 0xFE	; 254
    1cea:	01 c0       	rjmp	.+2      	; 0x1cee <tft144_putstring+0x126>
    1cec:	8e 81       	ldd	r24, Y+6	; 0x06
    1cee:	89 0f       	add	r24, r25
    1cf0:	f3 01       	movw	r30, r6
    1cf2:	80 83       	st	Z, r24
	uint8_t cw,w,h,offset;

	w=pgm_read_byte(pgm_read_word(&fontlib[font]));
	h=pgm_read_byte(pgm_read_word(&fontlib[font])+2);
	offset=pgm_read_byte(pgm_read_word(&fontlib[font])+4);
	while (*str) {
    1cf4:	af 81       	ldd	r26, Y+7	; 0x07
    1cf6:	b8 85       	ldd	r27, Y+8	; 0x08
    1cf8:	8c 91       	ld	r24, X
    1cfa:	81 11       	cpse	r24, r1
    1cfc:	ac cf       	rjmp	.-168    	; 0x1c56 <tft144_putstring+0x8e>
			*x += (cw ? cw + 2 : w / 2);
		}

		str++;
	}
}
    1cfe:	28 96       	adiw	r28, 0x08	; 8
    1d00:	0f b6       	in	r0, 0x3f	; 63
    1d02:	f8 94       	cli
    1d04:	de bf       	out	0x3e, r29	; 62
    1d06:	0f be       	out	0x3f, r0	; 63
    1d08:	cd bf       	out	0x3d, r28	; 61
    1d0a:	df 91       	pop	r29
    1d0c:	cf 91       	pop	r28
    1d0e:	1f 91       	pop	r17
    1d10:	0f 91       	pop	r16
    1d12:	ff 90       	pop	r15
    1d14:	ef 90       	pop	r14
    1d16:	df 90       	pop	r13
    1d18:	cf 90       	pop	r12
    1d1a:	bf 90       	pop	r11
    1d1c:	af 90       	pop	r10
    1d1e:	9f 90       	pop	r9
    1d20:	8f 90       	pop	r8
    1d22:	7f 90       	pop	r7
    1d24:	6f 90       	pop	r6
    1d26:	5f 90       	pop	r5
    1d28:	4f 90       	pop	r4
    1d2a:	3f 90       	pop	r3
    1d2c:	2f 90       	pop	r2
    1d2e:	08 95       	ret

00001d30 <__udivmodqi4>:
    1d30:	99 1b       	sub	r25, r25
    1d32:	79 e0       	ldi	r23, 0x09	; 9
    1d34:	04 c0       	rjmp	.+8      	; 0x1d3e <__udivmodqi4_ep>

00001d36 <__udivmodqi4_loop>:
    1d36:	99 1f       	adc	r25, r25
    1d38:	96 17       	cp	r25, r22
    1d3a:	08 f0       	brcs	.+2      	; 0x1d3e <__udivmodqi4_ep>
    1d3c:	96 1b       	sub	r25, r22

00001d3e <__udivmodqi4_ep>:
    1d3e:	88 1f       	adc	r24, r24
    1d40:	7a 95       	dec	r23
    1d42:	c9 f7       	brne	.-14     	; 0x1d36 <__udivmodqi4_loop>
    1d44:	80 95       	com	r24
    1d46:	08 95       	ret

00001d48 <isgraph>:
    1d48:	80 32       	cpi	r24, 0x20	; 32
    1d4a:	09 f0       	breq	.+2      	; 0x1d4e <isprint+0x2>

00001d4c <isprint>:
    1d4c:	91 11       	cpse	r25, r1
    1d4e:	04 c0       	rjmp	.+8      	; 0x1d58 <__ctype_isfalse>
    1d50:	80 52       	subi	r24, 0x20	; 32
    1d52:	8f 55       	subi	r24, 0x5F	; 95
    1d54:	e0 f7       	brcc	.-8      	; 0x1d4e <isprint+0x2>
    1d56:	08 95       	ret

00001d58 <__ctype_isfalse>:
    1d58:	99 27       	eor	r25, r25
    1d5a:	88 27       	eor	r24, r24

00001d5c <__ctype_istrue>:
    1d5c:	08 95       	ret

00001d5e <_exit>:
    1d5e:	f8 94       	cli

00001d60 <__stop_program>:
    1d60:	ff cf       	rjmp	.-2      	; 0x1d60 <__stop_program>
